; ModuleID = 'C:/Users/Jack/workspace/deconvo-algo/solution2-opt1/.autopilot/db/a.o.3.bc'
target datalayout = "e-p:32:32:32-i1:8:8-i8:8:8-i16:16:16-i32:32:32-i64:64:64-f32:32:32-f64:64:64-f80:128:128-v64:64:64-v128:128:128-a0:0:64-f80:32:32-n8:16:32-S32"
target triple = "i686-pc-mingw32"

@llvm_global_ctors_1 = appending global [1 x void ()*] [void ()* @_GLOBAL__I_a] ; [#uses=0 type=[1 x void ()*]*]
@llvm_global_ctors_0 = appending global [1 x i32] [i32 65535] ; [#uses=0 type=[1 x i32]*]
@deconvolution_str = internal unnamed_addr constant [14 x i8] c"deconvolution\00" ; [#uses=1 type=[14 x i8]*]
@IFEAT_DEPTH_LOOP_IFE = internal unnamed_addr constant [32 x i8] c"IFEAT_DEPTH_LOOP_IFEAT_ROW_LOOP\00" ; [#uses=1 type=[32 x i8]*]
@p_str4 = private unnamed_addr constant [1 x i8] zeroinitializer, align 1 ; [#uses=1 type=[1 x i8]*]
@p_str3 = private unnamed_addr constant [17 x i8] c"OFEAT_DEPTH_LOOP\00", align 1 ; [#uses=3 type=[17 x i8]*]
@p_str2 = private unnamed_addr constant [15 x i8] c"IFEAT_COL_LOOP\00", align 1 ; [#uses=3 type=[15 x i8]*]
@p_str1 = private unnamed_addr constant [15 x i8] c"IFEAT_ROW_LOOP\00", align 1 ; [#uses=3 type=[15 x i8]*]

; [#uses=8]
declare void @llvm.dbg.value(metadata, i64, metadata) nounwind readnone

; [#uses=0]
define void @deconvolution([1152 x i8]* %kernel_V, [2048 x i8]* %ifeat_V, [5184 x i8]* %ofeat_V) {
  call void (...)* @_ssdm_op_SpecBitsMap([1152 x i8]* %kernel_V), !map !37
  call void (...)* @_ssdm_op_SpecBitsMap([2048 x i8]* %ifeat_V), !map !45
  call void (...)* @_ssdm_op_SpecBitsMap([5184 x i8]* %ofeat_V), !map !50
  call void (...)* @_ssdm_op_SpecTopModule([14 x i8]* @deconvolution_str) nounwind
  call void @llvm.dbg.value(metadata !{[1152 x i8]* %kernel_V}, i64 0, metadata !56), !dbg !1266 ; [debug line = 11:26] [debug variable = kernel.V]
  call void @llvm.dbg.value(metadata !{[2048 x i8]* %ifeat_V}, i64 0, metadata !1267), !dbg !1271 ; [debug line = 12:14] [debug variable = ifeat.V]
  call void @llvm.dbg.value(metadata !{[5184 x i8]* %ofeat_V}, i64 0, metadata !1272), !dbg !1276 ; [debug line = 13:14] [debug variable = ofeat.V]
  br label %1, !dbg !1277                         ; [debug line = 15:43]

; <label>:1                                       ; preds = %6, %0
  %indvar_flatten = phi i8 [ 0, %0 ], [ %indvar_flatten_next, %6 ] ; [#uses=2 type=i8]
  %id = phi i4 [ 0, %0 ], [ %id_cast4_mid2_v, %6 ] ; [#uses=2 type=i4]
  %ir = phi i5 [ 0, %0 ], [ %ir_1, %6 ]           ; [#uses=2 type=i5]
  call void @llvm.dbg.value(metadata !{i4 %id_1}, i64 0, metadata !1280), !dbg !1281 ; [debug line = 15:53] [debug variable = id]
  %exitcond_flatten = icmp eq i8 %indvar_flatten, -128 ; [#uses=1 type=i1]
  %indvar_flatten_next = add i8 %indvar_flatten, 1 ; [#uses=1 type=i8]
  br i1 %exitcond_flatten, label %7, label %.reset

; <label>:2                                       ; preds = %.reset, %5
  %ic = phi i5 [ 0, %.reset ], [ %ic_1, %5 ]      ; [#uses=5 type=i5]
  %tmp_3 = icmp eq i5 %ic, -16, !dbg !1282        ; [#uses=1 type=i1] [debug line = 17:43]
  %ic_1 = add i5 %ic, 1, !dbg !1287               ; [#uses=2 type=i5] [debug line = 24:38]
  br i1 %tmp_3, label %6, label %3, !dbg !1282    ; [debug line = 17:43]

; <label>:3                                       ; preds = %2
  %ic_cast2_cast1 = zext i5 %ic to i14, !dbg !1295 ; [#uses=3 type=i14] [debug line = 1451:95@1451:111@3368:0@25:30]
  %ic_cast2_cast = zext i5 %ic to i13, !dbg !1295 ; [#uses=1 type=i13] [debug line = 1451:95@1451:111@3368:0@25:30]
  %tmp_2 = add i13 %tmp_10_cast, %ic_cast2_cast, !dbg !1295 ; [#uses=1 type=i13] [debug line = 1451:95@1451:111@3368:0@25:30]
  %tmp_11_cast = zext i13 %tmp_2 to i32, !dbg !1295 ; [#uses=1 type=i32] [debug line = 1451:95@1451:111@3368:0@25:30]
  %ifeat_V_addr = getelementptr [2048 x i8]* %ifeat_V, i32 0, i32 %tmp_11_cast, !dbg !1295 ; [#uses=1 type=i8*] [debug line = 1451:95@1451:111@3368:0@25:30]
  %empty = call i32 (...)* @_ssdm_op_SpecLoopTripCount(i64 16, i64 16, i64 16) ; [#uses=0 type=i32]
  call void (...)* @_ssdm_op_SpecLoopName([15 x i8]* @p_str2) nounwind, !dbg !1311 ; [debug line = 17:61]
  %tmp_6 = call i32 (...)* @_ssdm_op_SpecRegionBegin([15 x i8]* @p_str2), !dbg !1311 ; [#uses=1 type=i32] [debug line = 17:61]
  call void @llvm.dbg.value(metadata !{i5 %ic_1}, i64 0, metadata !1312), !dbg !1313 ; [debug line = 17:54] [debug variable = ic]
  %p_oc_0_1_cast_cast = zext i5 %ic_1 to i14, !dbg !1287 ; [#uses=3 type=i14] [debug line = 24:38]
  %p_oc_0_2 = add i5 %ic, 2, !dbg !1287           ; [#uses=1 type=i5] [debug line = 24:38]
  %p_oc_0_2_cast_cast = zext i5 %p_oc_0_2 to i14, !dbg !1314 ; [#uses=3 type=i14] [debug line = 18:46]
  br label %4, !dbg !1314                         ; [debug line = 18:46]

; <label>:4                                       ; preds = %ifBlock, %3
  %oc = phi i5 [ 0, %3 ], [ %oc_1, %ifBlock ]     ; [#uses=5 type=i5]
  %tmp_5 = icmp eq i5 %oc, -16, !dbg !1314        ; [#uses=1 type=i1] [debug line = 18:46]
  %oc_1 = add i5 %oc, 1, !dbg !1315               ; [#uses=1 type=i5] [debug line = 18:57]
  br i1 %tmp_5, label %5, label %ifBlock, !dbg !1314 ; [debug line = 18:46]

ifBlock:                                          ; preds = %4
  %tmp_9 = call i8 @_ssdm_op_BitConcatenate.i8.i5.i3(i5 %oc, i3 0) ; [#uses=1 type=i8]
  %tmp_13_cast = zext i8 %tmp_9 to i9, !dbg !1295 ; [#uses=1 type=i9] [debug line = 1451:95@1451:111@3368:0@25:30]
  %tmp_10 = add i9 %id_cast4_mid2_cast, %tmp_13_cast, !dbg !1295 ; [#uses=2 type=i9] [debug line = 1451:95@1451:111@3368:0@25:30]
  %tmp_14_cast = zext i9 %tmp_10 to i12, !dbg !1295 ; [#uses=1 type=i12] [debug line = 1451:95@1451:111@3368:0@25:30]
  %p_shl8_cast = call i12 @_ssdm_op_BitConcatenate.i12.i9.i3(i9 %tmp_10, i3 0), !dbg !1295 ; [#uses=1 type=i12] [debug line = 1451:95@1451:111@3368:0@25:30]
  %tmp_11 = add i12 %p_shl8_cast, %tmp_14_cast, !dbg !1295 ; [#uses=9 type=i12] [debug line = 1451:95@1451:111@3368:0@25:30]
  %tmp_16_cast = zext i12 %tmp_11 to i32, !dbg !1295 ; [#uses=1 type=i32] [debug line = 1451:95@1451:111@3368:0@25:30]
  %kernel_V_addr = getelementptr [1152 x i8]* %kernel_V, i32 0, i32 %tmp_16_cast, !dbg !1295 ; [#uses=1 type=i8*] [debug line = 1451:95@1451:111@3368:0@25:30]
  %tmp_12 = add i12 %tmp_11, 1, !dbg !1295        ; [#uses=1 type=i12] [debug line = 1451:95@1451:111@3368:0@25:30]
  %tmp_17_cast = zext i12 %tmp_12 to i32, !dbg !1295 ; [#uses=1 type=i32] [debug line = 1451:95@1451:111@3368:0@25:30]
  %kernel_V_addr_1 = getelementptr [1152 x i8]* %kernel_V, i32 0, i32 %tmp_17_cast, !dbg !1295 ; [#uses=1 type=i8*] [debug line = 1451:95@1451:111@3368:0@25:30]
  %tmp_13 = add i12 %tmp_11, 2, !dbg !1295        ; [#uses=1 type=i12] [debug line = 1451:95@1451:111@3368:0@25:30]
  %tmp_18_cast = zext i12 %tmp_13 to i32, !dbg !1295 ; [#uses=1 type=i32] [debug line = 1451:95@1451:111@3368:0@25:30]
  %kernel_V_addr_2 = getelementptr [1152 x i8]* %kernel_V, i32 0, i32 %tmp_18_cast, !dbg !1295 ; [#uses=1 type=i8*] [debug line = 1451:95@1451:111@3368:0@25:30]
  %tmp_14 = add i12 %tmp_11, 3, !dbg !1295        ; [#uses=1 type=i12] [debug line = 1451:95@1451:111@3368:0@25:30]
  %tmp_19_cast = zext i12 %tmp_14 to i32, !dbg !1295 ; [#uses=1 type=i32] [debug line = 1451:95@1451:111@3368:0@25:30]
  %kernel_V_addr_3 = getelementptr [1152 x i8]* %kernel_V, i32 0, i32 %tmp_19_cast, !dbg !1295 ; [#uses=1 type=i8*] [debug line = 1451:95@1451:111@3368:0@25:30]
  %tmp_15 = add i12 %tmp_11, 4, !dbg !1295        ; [#uses=1 type=i12] [debug line = 1451:95@1451:111@3368:0@25:30]
  %tmp_20_cast = zext i12 %tmp_15 to i32, !dbg !1295 ; [#uses=1 type=i32] [debug line = 1451:95@1451:111@3368:0@25:30]
  %kernel_V_addr_4 = getelementptr [1152 x i8]* %kernel_V, i32 0, i32 %tmp_20_cast, !dbg !1295 ; [#uses=1 type=i8*] [debug line = 1451:95@1451:111@3368:0@25:30]
  %tmp_16 = add i12 %tmp_11, 5, !dbg !1295        ; [#uses=1 type=i12] [debug line = 1451:95@1451:111@3368:0@25:30]
  %tmp_21_cast = zext i12 %tmp_16 to i32, !dbg !1295 ; [#uses=1 type=i32] [debug line = 1451:95@1451:111@3368:0@25:30]
  %kernel_V_addr_5 = getelementptr [1152 x i8]* %kernel_V, i32 0, i32 %tmp_21_cast, !dbg !1295 ; [#uses=1 type=i8*] [debug line = 1451:95@1451:111@3368:0@25:30]
  %tmp_17 = add i12 %tmp_11, 6, !dbg !1295        ; [#uses=1 type=i12] [debug line = 1451:95@1451:111@3368:0@25:30]
  %tmp_22_cast = zext i12 %tmp_17 to i32, !dbg !1295 ; [#uses=1 type=i32] [debug line = 1451:95@1451:111@3368:0@25:30]
  %kernel_V_addr_6 = getelementptr [1152 x i8]* %kernel_V, i32 0, i32 %tmp_22_cast, !dbg !1295 ; [#uses=1 type=i8*] [debug line = 1451:95@1451:111@3368:0@25:30]
  %tmp_18 = add i12 %tmp_11, 7, !dbg !1295        ; [#uses=1 type=i12] [debug line = 1451:95@1451:111@3368:0@25:30]
  %tmp_23_cast = zext i12 %tmp_18 to i32, !dbg !1295 ; [#uses=1 type=i32] [debug line = 1451:95@1451:111@3368:0@25:30]
  %kernel_V_addr_7 = getelementptr [1152 x i8]* %kernel_V, i32 0, i32 %tmp_23_cast, !dbg !1295 ; [#uses=1 type=i8*] [debug line = 1451:95@1451:111@3368:0@25:30]
  %tmp_19 = add i12 %tmp_11, 8, !dbg !1295        ; [#uses=1 type=i12] [debug line = 1451:95@1451:111@3368:0@25:30]
  %tmp_24_cast = zext i12 %tmp_19 to i32, !dbg !1295 ; [#uses=1 type=i32] [debug line = 1451:95@1451:111@3368:0@25:30]
  %kernel_V_addr_8 = getelementptr [1152 x i8]* %kernel_V, i32 0, i32 %tmp_24_cast, !dbg !1295 ; [#uses=1 type=i8*] [debug line = 1451:95@1451:111@3368:0@25:30]
  %tmp_20 = call i9 @_ssdm_op_BitConcatenate.i9.i5.i4(i5 %oc, i4 0) ; [#uses=1 type=i9]
  %p_shl6_cast = zext i9 %tmp_20 to i10           ; [#uses=1 type=i10]
  %tmp_21 = call i6 @_ssdm_op_BitConcatenate.i6.i5.i1(i5 %oc, i1 false) ; [#uses=1 type=i6]
  %p_shl7_cast = zext i6 %tmp_21 to i10, !dbg !1316 ; [#uses=1 type=i10] [debug line = 280:10@25:30]
  %tmp_22 = add i10 %p_shl6_cast, %p_shl7_cast, !dbg !1316 ; [#uses=3 type=i10] [debug line = 280:10@25:30]
  %tmp_23 = add i10 %ir_cast3_cast1, %tmp_22, !dbg !1316 ; [#uses=2 type=i10] [debug line = 280:10@25:30]
  %p_shl4_cast = call i14 @_ssdm_op_BitConcatenate.i14.i10.i4(i10 %tmp_23, i4 0) ; [#uses=1 type=i14]
  %tmp_24 = call i11 @_ssdm_op_BitConcatenate.i11.i10.i1(i10 %tmp_23, i1 false) ; [#uses=1 type=i11]
  %p_shl5_cast = zext i11 %tmp_24 to i14, !dbg !1316 ; [#uses=1 type=i14] [debug line = 280:10@25:30]
  %tmp_25 = add i14 %p_shl4_cast, %p_shl5_cast, !dbg !1316 ; [#uses=3 type=i14] [debug line = 280:10@25:30]
  %tmp_26 = add i14 %ic_cast2_cast1, %tmp_25, !dbg !1316 ; [#uses=1 type=i14] [debug line = 280:10@25:30]
  %tmp_32_cast = zext i14 %tmp_26 to i32, !dbg !1316 ; [#uses=1 type=i32] [debug line = 280:10@25:30]
  %ofeat_V_addr = getelementptr [5184 x i8]* %ofeat_V, i32 0, i32 %tmp_32_cast, !dbg !1316 ; [#uses=1 type=i8*] [debug line = 280:10@25:30]
  %tmp_27 = add i14 %p_oc_0_1_cast_cast, %tmp_25, !dbg !1316 ; [#uses=1 type=i14] [debug line = 280:10@25:30]
  %tmp_33_cast = zext i14 %tmp_27 to i32, !dbg !1316 ; [#uses=1 type=i32] [debug line = 280:10@25:30]
  %ofeat_V_addr_1 = getelementptr [5184 x i8]* %ofeat_V, i32 0, i32 %tmp_33_cast, !dbg !1316 ; [#uses=1 type=i8*] [debug line = 280:10@25:30]
  %tmp_28 = add i14 %p_oc_0_2_cast_cast, %tmp_25, !dbg !1316 ; [#uses=1 type=i14] [debug line = 280:10@25:30]
  %tmp_34_cast = zext i14 %tmp_28 to i32, !dbg !1316 ; [#uses=1 type=i32] [debug line = 280:10@25:30]
  %ofeat_V_addr_2 = getelementptr [5184 x i8]* %ofeat_V, i32 0, i32 %tmp_34_cast, !dbg !1316 ; [#uses=1 type=i8*] [debug line = 280:10@25:30]
  %tmp_29 = add i10 %p_or_1_cast_cast, %tmp_22, !dbg !1316 ; [#uses=2 type=i10] [debug line = 280:10@25:30]
  %p_shl2_cast = call i14 @_ssdm_op_BitConcatenate.i14.i10.i4(i10 %tmp_29, i4 0) ; [#uses=1 type=i14]
  %tmp_30 = call i11 @_ssdm_op_BitConcatenate.i11.i10.i1(i10 %tmp_29, i1 false) ; [#uses=1 type=i11]
  %p_shl3_cast = zext i11 %tmp_30 to i14, !dbg !1316 ; [#uses=1 type=i14] [debug line = 280:10@25:30]
  %tmp_31 = add i14 %p_shl2_cast, %p_shl3_cast, !dbg !1316 ; [#uses=3 type=i14] [debug line = 280:10@25:30]
  %tmp_32 = add i14 %ic_cast2_cast1, %tmp_31, !dbg !1316 ; [#uses=1 type=i14] [debug line = 280:10@25:30]
  %tmp_39_cast = zext i14 %tmp_32 to i32, !dbg !1316 ; [#uses=1 type=i32] [debug line = 280:10@25:30]
  %ofeat_V_addr_3 = getelementptr [5184 x i8]* %ofeat_V, i32 0, i32 %tmp_39_cast, !dbg !1316 ; [#uses=1 type=i8*] [debug line = 280:10@25:30]
  %tmp_33 = add i14 %p_oc_0_1_cast_cast, %tmp_31, !dbg !1316 ; [#uses=1 type=i14] [debug line = 280:10@25:30]
  %tmp_40_cast = zext i14 %tmp_33 to i32, !dbg !1316 ; [#uses=1 type=i32] [debug line = 280:10@25:30]
  %ofeat_V_addr_4 = getelementptr [5184 x i8]* %ofeat_V, i32 0, i32 %tmp_40_cast, !dbg !1316 ; [#uses=1 type=i8*] [debug line = 280:10@25:30]
  %tmp_34 = add i14 %p_oc_0_2_cast_cast, %tmp_31, !dbg !1316 ; [#uses=1 type=i14] [debug line = 280:10@25:30]
  %tmp_41_cast = zext i14 %tmp_34 to i32, !dbg !1316 ; [#uses=1 type=i32] [debug line = 280:10@25:30]
  %ofeat_V_addr_5 = getelementptr [5184 x i8]* %ofeat_V, i32 0, i32 %tmp_41_cast, !dbg !1316 ; [#uses=1 type=i8*] [debug line = 280:10@25:30]
  %tmp_35 = add i10 %p_or_2_cast_cast, %tmp_22, !dbg !1316 ; [#uses=2 type=i10] [debug line = 280:10@25:30]
  %p_shl_cast = call i14 @_ssdm_op_BitConcatenate.i14.i10.i4(i10 %tmp_35, i4 0) ; [#uses=1 type=i14]
  %tmp_36 = call i11 @_ssdm_op_BitConcatenate.i11.i10.i1(i10 %tmp_35, i1 false) ; [#uses=1 type=i11]
  %p_shl1_cast = zext i11 %tmp_36 to i14, !dbg !1316 ; [#uses=1 type=i14] [debug line = 280:10@25:30]
  %tmp_37 = add i14 %p_shl_cast, %p_shl1_cast, !dbg !1316 ; [#uses=3 type=i14] [debug line = 280:10@25:30]
  %tmp_38 = add i14 %ic_cast2_cast1, %tmp_37, !dbg !1316 ; [#uses=1 type=i14] [debug line = 280:10@25:30]
  %tmp_46_cast = zext i14 %tmp_38 to i32, !dbg !1316 ; [#uses=1 type=i32] [debug line = 280:10@25:30]
  %ofeat_V_addr_6 = getelementptr [5184 x i8]* %ofeat_V, i32 0, i32 %tmp_46_cast, !dbg !1316 ; [#uses=1 type=i8*] [debug line = 280:10@25:30]
  %tmp_39 = add i14 %p_oc_0_1_cast_cast, %tmp_37, !dbg !1316 ; [#uses=1 type=i14] [debug line = 280:10@25:30]
  %tmp_47_cast = zext i14 %tmp_39 to i32, !dbg !1316 ; [#uses=1 type=i32] [debug line = 280:10@25:30]
  %ofeat_V_addr_7 = getelementptr [5184 x i8]* %ofeat_V, i32 0, i32 %tmp_47_cast, !dbg !1316 ; [#uses=1 type=i8*] [debug line = 280:10@25:30]
  %tmp_40 = add i14 %p_oc_0_2_cast_cast, %tmp_37, !dbg !1316 ; [#uses=1 type=i14] [debug line = 280:10@25:30]
  %tmp_48_cast = zext i14 %tmp_40 to i32, !dbg !1316 ; [#uses=1 type=i32] [debug line = 280:10@25:30]
  %ofeat_V_addr_8 = getelementptr [5184 x i8]* %ofeat_V, i32 0, i32 %tmp_48_cast, !dbg !1316 ; [#uses=1 type=i8*] [debug line = 280:10@25:30]
  %empty_2 = call i32 (...)* @_ssdm_op_SpecLoopTripCount(i64 16, i64 16, i64 16) ; [#uses=0 type=i32]
  call void (...)* @_ssdm_op_SpecLoopName([17 x i8]* @p_str3) nounwind, !dbg !1319 ; [debug line = 18:64]
  %tmp_7 = call i32 (...)* @_ssdm_op_SpecRegionBegin([17 x i8]* @p_str3), !dbg !1319 ; [#uses=1 type=i32] [debug line = 18:64]
  call void (...)* @_ssdm_op_SpecPipeline(i32 1, i32 1, i32 1, i32 0, [1 x i8]* @p_str4) nounwind, !dbg !1320 ; [debug line = 19:1]
  %ifeat_V_load = load i8* %ifeat_V_addr, align 1, !dbg !1295 ; [#uses=9 type=i8] [debug line = 1451:95@1451:111@3368:0@25:30]
  %kernel_V_load = load i8* %kernel_V_addr, align 1, !dbg !1295 ; [#uses=1 type=i8] [debug line = 1451:95@1451:111@3368:0@25:30]
  %tmp_s = mul i8 %kernel_V_load, %ifeat_V_load, !dbg !1321 ; [#uses=1 type=i8] [debug line = 228:91@228:106@25:30]
  store i8 %tmp_s, i8* %ofeat_V_addr, align 1, !dbg !1316 ; [debug line = 280:10@25:30]
  %kernel_V_load_1 = load i8* %kernel_V_addr_1, align 1, !dbg !1295 ; [#uses=1 type=i8] [debug line = 1451:95@1451:111@3368:0@25:30]
  %tmp_0_1 = mul i8 %kernel_V_load_1, %ifeat_V_load, !dbg !1321 ; [#uses=1 type=i8] [debug line = 228:91@228:106@25:30]
  store i8 %tmp_0_1, i8* %ofeat_V_addr_1, align 1, !dbg !1316 ; [debug line = 280:10@25:30]
  %kernel_V_load_2 = load i8* %kernel_V_addr_2, align 1, !dbg !1295 ; [#uses=1 type=i8] [debug line = 1451:95@1451:111@3368:0@25:30]
  %tmp_0_2 = mul i8 %kernel_V_load_2, %ifeat_V_load, !dbg !1321 ; [#uses=1 type=i8] [debug line = 228:91@228:106@25:30]
  store i8 %tmp_0_2, i8* %ofeat_V_addr_2, align 1, !dbg !1316 ; [debug line = 280:10@25:30]
  %kernel_V_load_3 = load i8* %kernel_V_addr_3, align 1, !dbg !1295 ; [#uses=1 type=i8] [debug line = 1451:95@1451:111@3368:0@25:30]
  %tmp_1 = mul i8 %kernel_V_load_3, %ifeat_V_load, !dbg !1321 ; [#uses=1 type=i8] [debug line = 228:91@228:106@25:30]
  store i8 %tmp_1, i8* %ofeat_V_addr_3, align 1, !dbg !1316 ; [debug line = 280:10@25:30]
  %kernel_V_load_4 = load i8* %kernel_V_addr_4, align 1, !dbg !1295 ; [#uses=1 type=i8] [debug line = 1451:95@1451:111@3368:0@25:30]
  %tmp_1_1 = mul i8 %kernel_V_load_4, %ifeat_V_load, !dbg !1321 ; [#uses=1 type=i8] [debug line = 228:91@228:106@25:30]
  store i8 %tmp_1_1, i8* %ofeat_V_addr_4, align 1, !dbg !1316 ; [debug line = 280:10@25:30]
  %kernel_V_load_5 = load i8* %kernel_V_addr_5, align 1, !dbg !1295 ; [#uses=1 type=i8] [debug line = 1451:95@1451:111@3368:0@25:30]
  %tmp_1_2 = mul i8 %kernel_V_load_5, %ifeat_V_load, !dbg !1321 ; [#uses=1 type=i8] [debug line = 228:91@228:106@25:30]
  store i8 %tmp_1_2, i8* %ofeat_V_addr_5, align 1, !dbg !1316 ; [debug line = 280:10@25:30]
  %kernel_V_load_6 = load i8* %kernel_V_addr_6, align 1, !dbg !1295 ; [#uses=1 type=i8] [debug line = 1451:95@1451:111@3368:0@25:30]
  %tmp_2_3 = mul i8 %kernel_V_load_6, %ifeat_V_load, !dbg !1321 ; [#uses=1 type=i8] [debug line = 228:91@228:106@25:30]
  store i8 %tmp_2_3, i8* %ofeat_V_addr_6, align 1, !dbg !1316 ; [debug line = 280:10@25:30]
  %kernel_V_load_7 = load i8* %kernel_V_addr_7, align 1, !dbg !1295 ; [#uses=1 type=i8] [debug line = 1451:95@1451:111@3368:0@25:30]
  %tmp_2_1 = mul i8 %kernel_V_load_7, %ifeat_V_load, !dbg !1321 ; [#uses=1 type=i8] [debug line = 228:91@228:106@25:30]
  store i8 %tmp_2_1, i8* %ofeat_V_addr_7, align 1, !dbg !1316 ; [debug line = 280:10@25:30]
  %kernel_V_load_8 = load i8* %kernel_V_addr_8, align 1, !dbg !1295 ; [#uses=1 type=i8] [debug line = 1451:95@1451:111@3368:0@25:30]
  %tmp_2_2 = mul i8 %kernel_V_load_8, %ifeat_V_load, !dbg !1321 ; [#uses=1 type=i8] [debug line = 228:91@228:106@25:30]
  store i8 %tmp_2_2, i8* %ofeat_V_addr_8, align 1, !dbg !1316 ; [debug line = 280:10@25:30]
  %empty_4 = call i32 (...)* @_ssdm_op_SpecRegionEnd([17 x i8]* @p_str3, i32 %tmp_7), !dbg !1326 ; [#uses=0 type=i32] [debug line = 28:5]
  call void @llvm.dbg.value(metadata !{i5 %oc_1}, i64 0, metadata !1327), !dbg !1315 ; [debug line = 18:57] [debug variable = oc]
  br label %4

; <label>:5                                       ; preds = %4
  %empty_5 = call i32 (...)* @_ssdm_op_SpecRegionEnd([15 x i8]* @p_str2, i32 %tmp_6), !dbg !1328 ; [#uses=0 type=i32] [debug line = 29:4]
  br label %2, !dbg !1313                         ; [debug line = 17:54]

; <label>:6                                       ; preds = %2
  %empty_6 = call i32 (...)* @_ssdm_op_SpecRegionEnd([15 x i8]* @p_str1, i32 %tmp_4), !dbg !1329 ; [#uses=0 type=i32] [debug line = 30:3]
  call void @llvm.dbg.value(metadata !{i5 %ir_1}, i64 0, metadata !1330), !dbg !1331 ; [debug line = 16:53] [debug variable = ir]
  br label %1, !dbg !1331                         ; [debug line = 16:53]

.reset:                                           ; preds = %1
  %id_1 = add i4 %id, 1, !dbg !1281               ; [#uses=1 type=i4] [debug line = 15:53]
  call void @llvm.dbg.value(metadata !{i4 %id_1}, i64 0, metadata !1280), !dbg !1281 ; [debug line = 15:53] [debug variable = id]
  call void (...)* @_ssdm_op_SpecLoopName([32 x i8]* @IFEAT_DEPTH_LOOP_IFE)
  %empty_7 = call i32 (...)* @_ssdm_op_SpecLoopTripCount(i64 128, i64 128, i64 128) ; [#uses=0 type=i32]
  %tmp_1_8 = icmp eq i5 %ir, -16, !dbg !1332      ; [#uses=2 type=i1] [debug line = 16:42]
  %ir_mid2 = select i1 %tmp_1_8, i5 0, i5 %ir     ; [#uses=4 type=i5]
  %id_cast4_mid2_v = select i1 %tmp_1_8, i4 %id_1, i4 %id, !dbg !1277 ; [#uses=3 type=i4] [debug line = 15:43]
  %id_cast4_mid2_cast = zext i4 %id_cast4_mid2_v to i9 ; [#uses=1 type=i9]
  %tmp = call i8 @_ssdm_op_BitConcatenate.i8.i4.i4(i4 %id_cast4_mid2_v, i4 0) ; [#uses=1 type=i8]
  %tmp_2_cast = zext i8 %tmp to i9, !dbg !1332    ; [#uses=1 type=i9] [debug line = 16:42]
  %ir_cast3_cast1 = zext i5 %ir_mid2 to i10, !dbg !1295 ; [#uses=1 type=i10] [debug line = 1451:95@1451:111@3368:0@25:30]
  %ir_cast3_cast = zext i5 %ir_mid2 to i9, !dbg !1295 ; [#uses=1 type=i9] [debug line = 1451:95@1451:111@3368:0@25:30]
  %tmp_8 = add i9 %ir_cast3_cast, %tmp_2_cast, !dbg !1295 ; [#uses=1 type=i9] [debug line = 1451:95@1451:111@3368:0@25:30]
  %tmp_10_cast = call i13 @_ssdm_op_BitConcatenate.i13.i9.i4(i9 %tmp_8, i4 0), !dbg !1333 ; [#uses=1 type=i13] [debug line = 16:60]
  call void (...)* @_ssdm_op_SpecLoopName([15 x i8]* @p_str1) nounwind, !dbg !1333 ; [debug line = 16:60]
  %tmp_4 = call i32 (...)* @_ssdm_op_SpecRegionBegin([15 x i8]* @p_str1), !dbg !1333 ; [#uses=1 type=i32] [debug line = 16:60]
  %ir_1 = add i5 %ir_mid2, 1, !dbg !1334          ; [#uses=2 type=i5] [debug line = 23:32]
  %p_or_1_cast_cast = zext i5 %ir_1 to i10, !dbg !1334 ; [#uses=1 type=i10] [debug line = 23:32]
  %p_or_2 = add i5 %ir_mid2, 2, !dbg !1334        ; [#uses=1 type=i5] [debug line = 23:32]
  %p_or_2_cast_cast = zext i5 %p_or_2 to i10, !dbg !1282 ; [#uses=1 type=i10] [debug line = 17:43]
  br label %2, !dbg !1282                         ; [debug line = 17:43]

; <label>:7                                       ; preds = %1
  ret void, !dbg !1335                            ; [debug line = 32:1]
}

; [#uses=1]
define weak void @_ssdm_op_SpecTopModule(...) {
entry:
  ret void
}

; [#uses=3]
define weak i32 @_ssdm_op_SpecRegionEnd(...) {
entry:
  ret i32 0
}

; [#uses=3]
define weak i32 @_ssdm_op_SpecRegionBegin(...) {
entry:
  ret i32 0
}

; [#uses=1]
define weak void @_ssdm_op_SpecPipeline(...) nounwind {
entry:
  ret void
}

; [#uses=3]
define weak i32 @_ssdm_op_SpecLoopTripCount(...) {
entry:
  ret i32 0
}

; [#uses=4]
define weak void @_ssdm_op_SpecLoopName(...) nounwind {
entry:
  ret void
}

; [#uses=3]
define weak void @_ssdm_op_SpecBitsMap(...) {
entry:
  ret void
}

; [#uses=1]
define weak i9 @_ssdm_op_BitConcatenate.i9.i5.i4(i5, i4) nounwind readnone {
entry:
  %empty = zext i5 %0 to i9                       ; [#uses=1 type=i9]
  %empty_9 = zext i4 %1 to i9                     ; [#uses=1 type=i9]
  %empty_10 = shl i9 %empty, 4                    ; [#uses=1 type=i9]
  %empty_11 = or i9 %empty_10, %empty_9           ; [#uses=1 type=i9]
  ret i9 %empty_11
}

; [#uses=1]
define weak i8 @_ssdm_op_BitConcatenate.i8.i5.i3(i5, i3) nounwind readnone {
entry:
  %empty = zext i5 %0 to i8                       ; [#uses=1 type=i8]
  %empty_12 = zext i3 %1 to i8                    ; [#uses=1 type=i8]
  %empty_13 = shl i8 %empty, 3                    ; [#uses=1 type=i8]
  %empty_14 = or i8 %empty_13, %empty_12          ; [#uses=1 type=i8]
  ret i8 %empty_14
}

; [#uses=1]
define weak i8 @_ssdm_op_BitConcatenate.i8.i4.i4(i4, i4) nounwind readnone {
entry:
  %empty = zext i4 %0 to i8                       ; [#uses=1 type=i8]
  %empty_15 = zext i4 %1 to i8                    ; [#uses=1 type=i8]
  %empty_16 = shl i8 %empty, 4                    ; [#uses=1 type=i8]
  %empty_17 = or i8 %empty_16, %empty_15          ; [#uses=1 type=i8]
  ret i8 %empty_17
}

; [#uses=1]
define weak i6 @_ssdm_op_BitConcatenate.i6.i5.i1(i5, i1) nounwind readnone {
entry:
  %empty = zext i5 %0 to i6                       ; [#uses=1 type=i6]
  %empty_18 = zext i1 %1 to i6                    ; [#uses=1 type=i6]
  %empty_19 = shl i6 %empty, 1                    ; [#uses=1 type=i6]
  %empty_20 = or i6 %empty_19, %empty_18          ; [#uses=1 type=i6]
  ret i6 %empty_20
}

; [#uses=3]
define weak i14 @_ssdm_op_BitConcatenate.i14.i10.i4(i10, i4) nounwind readnone {
entry:
  %empty = zext i10 %0 to i14                     ; [#uses=1 type=i14]
  %empty_21 = zext i4 %1 to i14                   ; [#uses=1 type=i14]
  %empty_22 = shl i14 %empty, 4                   ; [#uses=1 type=i14]
  %empty_23 = or i14 %empty_22, %empty_21         ; [#uses=1 type=i14]
  ret i14 %empty_23
}

; [#uses=1]
define weak i13 @_ssdm_op_BitConcatenate.i13.i9.i4(i9, i4) nounwind readnone {
entry:
  %empty = zext i9 %0 to i13                      ; [#uses=1 type=i13]
  %empty_24 = zext i4 %1 to i13                   ; [#uses=1 type=i13]
  %empty_25 = shl i13 %empty, 4                   ; [#uses=1 type=i13]
  %empty_26 = or i13 %empty_25, %empty_24         ; [#uses=1 type=i13]
  ret i13 %empty_26
}

; [#uses=1]
define weak i12 @_ssdm_op_BitConcatenate.i12.i9.i3(i9, i3) nounwind readnone {
entry:
  %empty = zext i9 %0 to i12                      ; [#uses=1 type=i12]
  %empty_27 = zext i3 %1 to i12                   ; [#uses=1 type=i12]
  %empty_28 = shl i12 %empty, 3                   ; [#uses=1 type=i12]
  %empty_29 = or i12 %empty_28, %empty_27         ; [#uses=1 type=i12]
  ret i12 %empty_29
}

; [#uses=3]
define weak i11 @_ssdm_op_BitConcatenate.i11.i10.i1(i10, i1) nounwind readnone {
entry:
  %empty = zext i10 %0 to i11                     ; [#uses=1 type=i11]
  %empty_30 = zext i1 %1 to i11                   ; [#uses=1 type=i11]
  %empty_31 = shl i11 %empty, 1                   ; [#uses=1 type=i11]
  %empty_32 = or i11 %empty_31, %empty_30         ; [#uses=1 type=i11]
  ret i11 %empty_32
}

; [#uses=1]
declare void @_GLOBAL__I_a() nounwind

!opencl.kernels = !{!0, !7, !7, !13, !13, !19, !22, !13, !13, !13, !28, !28}
!hls.encrypted.func = !{}
!llvm.map.gv = !{!30}

!0 = metadata !{null, metadata !1, metadata !2, metadata !3, metadata !4, metadata !5, metadata !6}
!1 = metadata !{metadata !"kernel_arg_addr_space", i32 1, i32 1, i32 1}
!2 = metadata !{metadata !"kernel_arg_access_qual", metadata !"none", metadata !"none", metadata !"none"}
!3 = metadata !{metadata !"kernel_arg_type", metadata !"DTYPE [8][3][3]*", metadata !"DTYPE [16][16]*", metadata !"DTYPE [18][18]*"}
!4 = metadata !{metadata !"kernel_arg_type_qual", metadata !"", metadata !"", metadata !""}
!5 = metadata !{metadata !"kernel_arg_name", metadata !"kernel", metadata !"ifeat", metadata !"ofeat"}
!6 = metadata !{metadata !"reqd_work_group_size", i32 1, i32 1, i32 1}
!7 = metadata !{null, metadata !8, metadata !9, metadata !10, metadata !11, metadata !12, metadata !6}
!8 = metadata !{metadata !"kernel_arg_addr_space", i32 0}
!9 = metadata !{metadata !"kernel_arg_access_qual", metadata !"none"}
!10 = metadata !{metadata !"kernel_arg_type", metadata !"const ap_int_base<16, false> &"}
!11 = metadata !{metadata !"kernel_arg_type_qual", metadata !""}
!12 = metadata !{metadata !"kernel_arg_name", metadata !"op"}
!13 = metadata !{null, metadata !14, metadata !15, metadata !16, metadata !17, metadata !18, metadata !6}
!14 = metadata !{metadata !"kernel_arg_addr_space"}
!15 = metadata !{metadata !"kernel_arg_access_qual"}
!16 = metadata !{metadata !"kernel_arg_type"}
!17 = metadata !{metadata !"kernel_arg_type_qual"}
!18 = metadata !{metadata !"kernel_arg_name"}
!19 = metadata !{null, metadata !8, metadata !9, metadata !20, metadata !11, metadata !21, metadata !6}
!20 = metadata !{metadata !"kernel_arg_type", metadata !"const ap_uint<8> &"}
!21 = metadata !{metadata !"kernel_arg_name", metadata !"op2"}
!22 = metadata !{null, metadata !23, metadata !24, metadata !25, metadata !26, metadata !27, metadata !6}
!23 = metadata !{metadata !"kernel_arg_addr_space", i32 0, i32 0}
!24 = metadata !{metadata !"kernel_arg_access_qual", metadata !"none", metadata !"none"}
!25 = metadata !{metadata !"kernel_arg_type", metadata !"const ap_int_base<8, false> &", metadata !"const ap_int_base<8, false> &"}
!26 = metadata !{metadata !"kernel_arg_type_qual", metadata !"", metadata !""}
!27 = metadata !{metadata !"kernel_arg_name", metadata !"op", metadata !"op2"}
!28 = metadata !{null, metadata !8, metadata !9, metadata !29, metadata !11, metadata !12, metadata !6}
!29 = metadata !{metadata !"kernel_arg_type", metadata !"const ap_int_base<8, false> &"}
!30 = metadata !{metadata !31, [1 x i32]* @llvm_global_ctors_0}
!31 = metadata !{metadata !32}
!32 = metadata !{i32 0, i32 31, metadata !33}
!33 = metadata !{metadata !34}
!34 = metadata !{metadata !"llvm.global_ctors.0", metadata !35, metadata !"", i32 0, i32 31}
!35 = metadata !{metadata !36}
!36 = metadata !{i32 0, i32 0, i32 1}
!37 = metadata !{metadata !38}
!38 = metadata !{i32 0, i32 7, metadata !39}
!39 = metadata !{metadata !40}
!40 = metadata !{metadata !"kernel.V", metadata !41, metadata !"uint8", i32 0, i32 7}
!41 = metadata !{metadata !42, metadata !43, metadata !44, metadata !44}
!42 = metadata !{i32 0, i32 15, i32 1}
!43 = metadata !{i32 0, i32 7, i32 1}
!44 = metadata !{i32 0, i32 2, i32 1}
!45 = metadata !{metadata !46}
!46 = metadata !{i32 0, i32 7, metadata !47}
!47 = metadata !{metadata !48}
!48 = metadata !{metadata !"ifeat.V", metadata !49, metadata !"uint8", i32 0, i32 7}
!49 = metadata !{metadata !43, metadata !42, metadata !42}
!50 = metadata !{metadata !51}
!51 = metadata !{i32 0, i32 7, metadata !52}
!52 = metadata !{metadata !53}
!53 = metadata !{metadata !"ofeat.V", metadata !54, metadata !"uint8", i32 0, i32 7}
!54 = metadata !{metadata !42, metadata !55, metadata !55}
!55 = metadata !{i32 0, i32 17, i32 1}
!56 = metadata !{i32 790531, metadata !57, metadata !"kernel.V", null, i32 11, metadata !1258, i32 0, i32 0} ; [ DW_TAG_arg_variable_field ]
!57 = metadata !{i32 786689, metadata !58, metadata !"kernel", metadata !59, i32 16777227, metadata !62, i32 0, i32 0} ; [ DW_TAG_arg_variable ]
!58 = metadata !{i32 786478, i32 0, metadata !59, metadata !"deconvolution", metadata !"deconvolution", metadata !"_Z13deconvolutionPA8_A3_A3_7ap_uintILi8EEPA16_A16_S0_PA18_A18_S0_", metadata !59, i32 11, metadata !60, i1 false, i1 true, i32 0, i32 0, null, i32 256, i1 false, null, null, null, metadata !82, i32 13} ; [ DW_TAG_subprogram ]
!59 = metadata !{i32 786473, metadata !"deconvo-algo/deconv-algo.cpp", metadata !"C:\5CUsers\5CJack\5Cworkspace", null} ; [ DW_TAG_file_type ]
!60 = metadata !{i32 786453, i32 0, metadata !"", i32 0, i32 0, i64 0, i64 0, i64 0, i32 0, null, metadata !61, i32 0, i32 0} ; [ DW_TAG_subroutine_type ]
!61 = metadata !{null, metadata !62, metadata !1250, metadata !1254}
!62 = metadata !{i32 786447, null, metadata !"", null, i32 0, i64 32, i64 32, i64 0, i32 0, metadata !63} ; [ DW_TAG_pointer_type ]
!63 = metadata !{i32 786433, null, metadata !"", null, i32 0, i64 576, i64 8, i32 0, i32 0, metadata !64, metadata !1247, i32 0, i32 0} ; [ DW_TAG_array_type ]
!64 = metadata !{i32 786454, null, metadata !"DTYPE", metadata !59, i32 27, i64 0, i64 0, i64 0, i32 0, metadata !65} ; [ DW_TAG_typedef ]
!65 = metadata !{i32 786434, null, metadata !"ap_uint<8>", metadata !66, i32 182, i64 8, i64 8, i32 0, i32 0, null, metadata !67, i32 0, null, metadata !1246} ; [ DW_TAG_class_type ]
!66 = metadata !{i32 786473, metadata !"C:/Xilinx/SDx/2017.1/Vivado_HLS/common/technology/autopilot\5Cap_int.h", metadata !"C:\5CUsers\5CJack\5Cworkspace", null} ; [ DW_TAG_file_type ]
!67 = metadata !{metadata !68, metadata !638, metadata !642, metadata !1178, metadata !1181, metadata !1184, metadata !1187, metadata !1190, metadata !1193, metadata !1196, metadata !1199, metadata !1202, metadata !1205, metadata !1208, metadata !1211, metadata !1214, metadata !1217, metadata !1220, metadata !1223, metadata !1226, metadata !1233, metadata !1238, metadata !1242, metadata !1245}
!68 = metadata !{i32 786460, metadata !65, null, metadata !66, i32 0, i64 0, i64 0, i64 0, i32 0, metadata !69} ; [ DW_TAG_inheritance ]
!69 = metadata !{i32 786434, null, metadata !"ap_int_base<8, false, true>", metadata !70, i32 1398, i64 8, i64 8, i32 0, i32 0, null, metadata !71, i32 0, null, metadata !636} ; [ DW_TAG_class_type ]
!70 = metadata !{i32 786473, metadata !"C:/Xilinx/SDx/2017.1/Vivado_HLS/common/technology/autopilot/ap_int_syn.h", metadata !"C:\5CUsers\5CJack\5Cworkspace", null} ; [ DW_TAG_file_type ]
!71 = metadata !{metadata !72, metadata !89, metadata !93, metadata !101, metadata !107, metadata !110, metadata !114, metadata !118, metadata !122, metadata !126, metadata !129, metadata !133, metadata !137, metadata !141, metadata !146, metadata !151, metadata !156, metadata !160, metadata !164, metadata !170, metadata !173, metadata !177, metadata !180, metadata !183, metadata !184, metadata !188, metadata !191, metadata !194, metadata !197, metadata !200, metadata !203, metadata !206, metadata !209, metadata !212, metadata !215, metadata !218, metadata !221, metadata !231, metadata !234, metadata !237, metadata !240, metadata !243, metadata !246, metadata !249, metadata !252, metadata !255, metadata !258, metadata !261, metadata !264, metadata !267, metadata !268, metadata !272, metadata !275, metadata !276, metadata !277, metadata !278, metadata !279, metadata !280, metadata !283, metadata !284, metadata !287, metadata !288, metadata !289, metadata !290, metadata !291, metadata !292, metadata !295, metadata !296, metadata !297, metadata !300, metadata !301, metadata !304, metadata !305, metadata !597, metadata !601, metadata !602, metadata !605, metadata !606, metadata !610, metadata !611, metadata !612, metadata !613, metadata !616, metadata !617, metadata !618, metadata !619, metadata !620, metadata !621, metadata !622, metadata !623, metadata !624, metadata !625, metadata !626, metadata !627, metadata !630, metadata !633}
!72 = metadata !{i32 786460, metadata !69, null, metadata !70, i32 0, i64 0, i64 0, i64 0, i32 0, metadata !73} ; [ DW_TAG_inheritance ]
!73 = metadata !{i32 786434, null, metadata !"ssdm_int<8 + 1024 * 0, false>", metadata !74, i32 10, i64 8, i64 8, i32 0, i32 0, null, metadata !75, i32 0, null, metadata !84} ; [ DW_TAG_class_type ]
!74 = metadata !{i32 786473, metadata !"C:/Xilinx/SDx/2017.1/Vivado_HLS/common/technology/autopilot/etc/autopilot_dt.def", metadata !"C:\5CUsers\5CJack\5Cworkspace", null} ; [ DW_TAG_file_type ]
!75 = metadata !{metadata !76, metadata !78}
!76 = metadata !{i32 786445, metadata !73, metadata !"V", metadata !74, i32 10, i64 8, i64 8, i64 0, i32 0, metadata !77} ; [ DW_TAG_member ]
!77 = metadata !{i32 786468, null, metadata !"uint8", null, i32 0, i64 8, i64 8, i64 0, i32 0, i32 7} ; [ DW_TAG_base_type ]
!78 = metadata !{i32 786478, i32 0, metadata !73, metadata !"ssdm_int", metadata !"ssdm_int", metadata !"", metadata !74, i32 10, metadata !79, i1 false, i1 false, i32 0, i32 0, null, i32 256, i1 false, null, null, i32 0, metadata !82, i32 10} ; [ DW_TAG_subprogram ]
!79 = metadata !{i32 786453, i32 0, metadata !"", i32 0, i32 0, i64 0, i64 0, i64 0, i32 0, null, metadata !80, i32 0, i32 0} ; [ DW_TAG_subroutine_type ]
!80 = metadata !{null, metadata !81}
!81 = metadata !{i32 786447, i32 0, metadata !"", i32 0, i32 0, i64 32, i64 32, i64 0, i32 64, metadata !73} ; [ DW_TAG_pointer_type ]
!82 = metadata !{metadata !83}
!83 = metadata !{i32 786468}                      ; [ DW_TAG_base_type ]
!84 = metadata !{metadata !85, metadata !87}
!85 = metadata !{i32 786480, null, metadata !"_AP_N", metadata !86, i64 8, null, i32 0, i32 0} ; [ DW_TAG_template_value_parameter ]
!86 = metadata !{i32 786468, null, metadata !"int", null, i32 0, i64 32, i64 32, i64 0, i32 0, i32 5} ; [ DW_TAG_base_type ]
!87 = metadata !{i32 786480, null, metadata !"_AP_S", metadata !88, i64 0, null, i32 0, i32 0} ; [ DW_TAG_template_value_parameter ]
!88 = metadata !{i32 786468, null, metadata !"bool", null, i32 0, i64 8, i64 8, i64 0, i32 0, i32 2} ; [ DW_TAG_base_type ]
!89 = metadata !{i32 786478, i32 0, metadata !69, metadata !"ap_int_base", metadata !"ap_int_base", metadata !"", metadata !70, i32 1439, metadata !90, i1 false, i1 false, i32 0, i32 0, null, i32 256, i1 false, null, null, i32 0, metadata !82, i32 1439} ; [ DW_TAG_subprogram ]
!90 = metadata !{i32 786453, i32 0, metadata !"", i32 0, i32 0, i64 0, i64 0, i64 0, i32 0, null, metadata !91, i32 0, i32 0} ; [ DW_TAG_subroutine_type ]
!91 = metadata !{null, metadata !92}
!92 = metadata !{i32 786447, i32 0, metadata !"", i32 0, i32 0, i64 32, i64 32, i64 0, i32 64, metadata !69} ; [ DW_TAG_pointer_type ]
!93 = metadata !{i32 786478, i32 0, metadata !69, metadata !"ap_int_base<8, false>", metadata !"ap_int_base<8, false>", metadata !"", metadata !70, i32 1451, metadata !94, i1 false, i1 false, i32 0, i32 0, null, i32 256, i1 false, null, metadata !98, i32 0, metadata !82, i32 1451} ; [ DW_TAG_subprogram ]
!94 = metadata !{i32 786453, i32 0, metadata !"", i32 0, i32 0, i64 0, i64 0, i64 0, i32 0, null, metadata !95, i32 0, i32 0} ; [ DW_TAG_subroutine_type ]
!95 = metadata !{null, metadata !92, metadata !96}
!96 = metadata !{i32 786448, null, null, null, i32 0, i64 0, i64 0, i64 0, i32 0, metadata !97} ; [ DW_TAG_reference_type ]
!97 = metadata !{i32 786470, null, metadata !"", null, i32 0, i64 0, i64 0, i64 0, i32 0, metadata !69} ; [ DW_TAG_const_type ]
!98 = metadata !{metadata !99, metadata !100}
!99 = metadata !{i32 786480, null, metadata !"_AP_W2", metadata !86, i64 8, null, i32 0, i32 0} ; [ DW_TAG_template_value_parameter ]
!100 = metadata !{i32 786480, null, metadata !"_AP_S2", metadata !88, i64 0, null, i32 0, i32 0} ; [ DW_TAG_template_value_parameter ]
!101 = metadata !{i32 786478, i32 0, metadata !69, metadata !"ap_int_base<8, false>", metadata !"ap_int_base<8, false>", metadata !"", metadata !70, i32 1454, metadata !102, i1 false, i1 false, i32 0, i32 0, null, i32 256, i1 false, null, metadata !98, i32 0, metadata !82, i32 1454} ; [ DW_TAG_subprogram ]
!102 = metadata !{i32 786453, i32 0, metadata !"", i32 0, i32 0, i64 0, i64 0, i64 0, i32 0, null, metadata !103, i32 0, i32 0} ; [ DW_TAG_subroutine_type ]
!103 = metadata !{null, metadata !92, metadata !104}
!104 = metadata !{i32 786448, null, null, null, i32 0, i64 0, i64 0, i64 0, i32 0, metadata !105} ; [ DW_TAG_reference_type ]
!105 = metadata !{i32 786470, null, metadata !"", null, i32 0, i64 0, i64 0, i64 0, i32 0, metadata !106} ; [ DW_TAG_const_type ]
!106 = metadata !{i32 786485, null, metadata !"", null, i32 0, i64 0, i64 0, i64 0, i32 0, metadata !69} ; [ DW_TAG_volatile_type ]
!107 = metadata !{i32 786478, i32 0, metadata !69, metadata !"ap_int_base", metadata !"ap_int_base", metadata !"", metadata !70, i32 1461, metadata !108, i1 false, i1 false, i32 0, i32 0, null, i32 384, i1 false, null, null, i32 0, metadata !82, i32 1461} ; [ DW_TAG_subprogram ]
!108 = metadata !{i32 786453, i32 0, metadata !"", i32 0, i32 0, i64 0, i64 0, i64 0, i32 0, null, metadata !109, i32 0, i32 0} ; [ DW_TAG_subroutine_type ]
!109 = metadata !{null, metadata !92, metadata !88}
!110 = metadata !{i32 786478, i32 0, metadata !69, metadata !"ap_int_base", metadata !"ap_int_base", metadata !"", metadata !70, i32 1462, metadata !111, i1 false, i1 false, i32 0, i32 0, null, i32 384, i1 false, null, null, i32 0, metadata !82, i32 1462} ; [ DW_TAG_subprogram ]
!111 = metadata !{i32 786453, i32 0, metadata !"", i32 0, i32 0, i64 0, i64 0, i64 0, i32 0, null, metadata !112, i32 0, i32 0} ; [ DW_TAG_subroutine_type ]
!112 = metadata !{null, metadata !92, metadata !113}
!113 = metadata !{i32 786468, null, metadata !"signed char", null, i32 0, i64 8, i64 8, i64 0, i32 0, i32 6} ; [ DW_TAG_base_type ]
!114 = metadata !{i32 786478, i32 0, metadata !69, metadata !"ap_int_base", metadata !"ap_int_base", metadata !"", metadata !70, i32 1463, metadata !115, i1 false, i1 false, i32 0, i32 0, null, i32 384, i1 false, null, null, i32 0, metadata !82, i32 1463} ; [ DW_TAG_subprogram ]
!115 = metadata !{i32 786453, i32 0, metadata !"", i32 0, i32 0, i64 0, i64 0, i64 0, i32 0, null, metadata !116, i32 0, i32 0} ; [ DW_TAG_subroutine_type ]
!116 = metadata !{null, metadata !92, metadata !117}
!117 = metadata !{i32 786468, null, metadata !"unsigned char", null, i32 0, i64 8, i64 8, i64 0, i32 0, i32 8} ; [ DW_TAG_base_type ]
!118 = metadata !{i32 786478, i32 0, metadata !69, metadata !"ap_int_base", metadata !"ap_int_base", metadata !"", metadata !70, i32 1464, metadata !119, i1 false, i1 false, i32 0, i32 0, null, i32 384, i1 false, null, null, i32 0, metadata !82, i32 1464} ; [ DW_TAG_subprogram ]
!119 = metadata !{i32 786453, i32 0, metadata !"", i32 0, i32 0, i64 0, i64 0, i64 0, i32 0, null, metadata !120, i32 0, i32 0} ; [ DW_TAG_subroutine_type ]
!120 = metadata !{null, metadata !92, metadata !121}
!121 = metadata !{i32 786468, null, metadata !"short", null, i32 0, i64 16, i64 16, i64 0, i32 0, i32 5} ; [ DW_TAG_base_type ]
!122 = metadata !{i32 786478, i32 0, metadata !69, metadata !"ap_int_base", metadata !"ap_int_base", metadata !"", metadata !70, i32 1465, metadata !123, i1 false, i1 false, i32 0, i32 0, null, i32 384, i1 false, null, null, i32 0, metadata !82, i32 1465} ; [ DW_TAG_subprogram ]
!123 = metadata !{i32 786453, i32 0, metadata !"", i32 0, i32 0, i64 0, i64 0, i64 0, i32 0, null, metadata !124, i32 0, i32 0} ; [ DW_TAG_subroutine_type ]
!124 = metadata !{null, metadata !92, metadata !125}
!125 = metadata !{i32 786468, null, metadata !"unsigned short", null, i32 0, i64 16, i64 16, i64 0, i32 0, i32 7} ; [ DW_TAG_base_type ]
!126 = metadata !{i32 786478, i32 0, metadata !69, metadata !"ap_int_base", metadata !"ap_int_base", metadata !"", metadata !70, i32 1466, metadata !127, i1 false, i1 false, i32 0, i32 0, null, i32 384, i1 false, null, null, i32 0, metadata !82, i32 1466} ; [ DW_TAG_subprogram ]
!127 = metadata !{i32 786453, i32 0, metadata !"", i32 0, i32 0, i64 0, i64 0, i64 0, i32 0, null, metadata !128, i32 0, i32 0} ; [ DW_TAG_subroutine_type ]
!128 = metadata !{null, metadata !92, metadata !86}
!129 = metadata !{i32 786478, i32 0, metadata !69, metadata !"ap_int_base", metadata !"ap_int_base", metadata !"", metadata !70, i32 1467, metadata !130, i1 false, i1 false, i32 0, i32 0, null, i32 384, i1 false, null, null, i32 0, metadata !82, i32 1467} ; [ DW_TAG_subprogram ]
!130 = metadata !{i32 786453, i32 0, metadata !"", i32 0, i32 0, i64 0, i64 0, i64 0, i32 0, null, metadata !131, i32 0, i32 0} ; [ DW_TAG_subroutine_type ]
!131 = metadata !{null, metadata !92, metadata !132}
!132 = metadata !{i32 786468, null, metadata !"unsigned int", null, i32 0, i64 32, i64 32, i64 0, i32 0, i32 7} ; [ DW_TAG_base_type ]
!133 = metadata !{i32 786478, i32 0, metadata !69, metadata !"ap_int_base", metadata !"ap_int_base", metadata !"", metadata !70, i32 1468, metadata !134, i1 false, i1 false, i32 0, i32 0, null, i32 384, i1 false, null, null, i32 0, metadata !82, i32 1468} ; [ DW_TAG_subprogram ]
!134 = metadata !{i32 786453, i32 0, metadata !"", i32 0, i32 0, i64 0, i64 0, i64 0, i32 0, null, metadata !135, i32 0, i32 0} ; [ DW_TAG_subroutine_type ]
!135 = metadata !{null, metadata !92, metadata !136}
!136 = metadata !{i32 786468, null, metadata !"long int", null, i32 0, i64 32, i64 32, i64 0, i32 0, i32 5} ; [ DW_TAG_base_type ]
!137 = metadata !{i32 786478, i32 0, metadata !69, metadata !"ap_int_base", metadata !"ap_int_base", metadata !"", metadata !70, i32 1469, metadata !138, i1 false, i1 false, i32 0, i32 0, null, i32 384, i1 false, null, null, i32 0, metadata !82, i32 1469} ; [ DW_TAG_subprogram ]
!138 = metadata !{i32 786453, i32 0, metadata !"", i32 0, i32 0, i64 0, i64 0, i64 0, i32 0, null, metadata !139, i32 0, i32 0} ; [ DW_TAG_subroutine_type ]
!139 = metadata !{null, metadata !92, metadata !140}
!140 = metadata !{i32 786468, null, metadata !"long unsigned int", null, i32 0, i64 32, i64 32, i64 0, i32 0, i32 7} ; [ DW_TAG_base_type ]
!141 = metadata !{i32 786478, i32 0, metadata !69, metadata !"ap_int_base", metadata !"ap_int_base", metadata !"", metadata !70, i32 1470, metadata !142, i1 false, i1 false, i32 0, i32 0, null, i32 384, i1 false, null, null, i32 0, metadata !82, i32 1470} ; [ DW_TAG_subprogram ]
!142 = metadata !{i32 786453, i32 0, metadata !"", i32 0, i32 0, i64 0, i64 0, i64 0, i32 0, null, metadata !143, i32 0, i32 0} ; [ DW_TAG_subroutine_type ]
!143 = metadata !{null, metadata !92, metadata !144}
!144 = metadata !{i32 786454, null, metadata !"ap_slong", metadata !70, i32 112, i64 0, i64 0, i64 0, i32 0, metadata !145} ; [ DW_TAG_typedef ]
!145 = metadata !{i32 786468, null, metadata !"long long int", null, i32 0, i64 64, i64 64, i64 0, i32 0, i32 5} ; [ DW_TAG_base_type ]
!146 = metadata !{i32 786478, i32 0, metadata !69, metadata !"ap_int_base", metadata !"ap_int_base", metadata !"", metadata !70, i32 1471, metadata !147, i1 false, i1 false, i32 0, i32 0, null, i32 384, i1 false, null, null, i32 0, metadata !82, i32 1471} ; [ DW_TAG_subprogram ]
!147 = metadata !{i32 786453, i32 0, metadata !"", i32 0, i32 0, i64 0, i64 0, i64 0, i32 0, null, metadata !148, i32 0, i32 0} ; [ DW_TAG_subroutine_type ]
!148 = metadata !{null, metadata !92, metadata !149}
!149 = metadata !{i32 786454, null, metadata !"ap_ulong", metadata !70, i32 111, i64 0, i64 0, i64 0, i32 0, metadata !150} ; [ DW_TAG_typedef ]
!150 = metadata !{i32 786468, null, metadata !"long long unsigned int", null, i32 0, i64 64, i64 64, i64 0, i32 0, i32 7} ; [ DW_TAG_base_type ]
!151 = metadata !{i32 786478, i32 0, metadata !69, metadata !"ap_int_base", metadata !"ap_int_base", metadata !"", metadata !70, i32 1472, metadata !152, i1 false, i1 false, i32 0, i32 0, null, i32 384, i1 false, null, null, i32 0, metadata !82, i32 1472} ; [ DW_TAG_subprogram ]
!152 = metadata !{i32 786453, i32 0, metadata !"", i32 0, i32 0, i64 0, i64 0, i64 0, i32 0, null, metadata !153, i32 0, i32 0} ; [ DW_TAG_subroutine_type ]
!153 = metadata !{null, metadata !92, metadata !154}
!154 = metadata !{i32 786454, null, metadata !"half", metadata !70, i32 54, i64 0, i64 0, i64 0, i32 0, metadata !155} ; [ DW_TAG_typedef ]
!155 = metadata !{i32 786468, null, metadata !"half", null, i32 0, i64 16, i64 16, i64 0, i32 0, i32 4} ; [ DW_TAG_base_type ]
!156 = metadata !{i32 786478, i32 0, metadata !69, metadata !"ap_int_base", metadata !"ap_int_base", metadata !"", metadata !70, i32 1473, metadata !157, i1 false, i1 false, i32 0, i32 0, null, i32 384, i1 false, null, null, i32 0, metadata !82, i32 1473} ; [ DW_TAG_subprogram ]
!157 = metadata !{i32 786453, i32 0, metadata !"", i32 0, i32 0, i64 0, i64 0, i64 0, i32 0, null, metadata !158, i32 0, i32 0} ; [ DW_TAG_subroutine_type ]
!158 = metadata !{null, metadata !92, metadata !159}
!159 = metadata !{i32 786468, null, metadata !"float", null, i32 0, i64 32, i64 32, i64 0, i32 0, i32 4} ; [ DW_TAG_base_type ]
!160 = metadata !{i32 786478, i32 0, metadata !69, metadata !"ap_int_base", metadata !"ap_int_base", metadata !"", metadata !70, i32 1474, metadata !161, i1 false, i1 false, i32 0, i32 0, null, i32 384, i1 false, null, null, i32 0, metadata !82, i32 1474} ; [ DW_TAG_subprogram ]
!161 = metadata !{i32 786453, i32 0, metadata !"", i32 0, i32 0, i64 0, i64 0, i64 0, i32 0, null, metadata !162, i32 0, i32 0} ; [ DW_TAG_subroutine_type ]
!162 = metadata !{null, metadata !92, metadata !163}
!163 = metadata !{i32 786468, null, metadata !"double", null, i32 0, i64 64, i64 64, i64 0, i32 0, i32 4} ; [ DW_TAG_base_type ]
!164 = metadata !{i32 786478, i32 0, metadata !69, metadata !"ap_int_base", metadata !"ap_int_base", metadata !"", metadata !70, i32 1501, metadata !165, i1 false, i1 false, i32 0, i32 0, null, i32 256, i1 false, null, null, i32 0, metadata !82, i32 1501} ; [ DW_TAG_subprogram ]
!165 = metadata !{i32 786453, i32 0, metadata !"", i32 0, i32 0, i64 0, i64 0, i64 0, i32 0, null, metadata !166, i32 0, i32 0} ; [ DW_TAG_subroutine_type ]
!166 = metadata !{null, metadata !92, metadata !167}
!167 = metadata !{i32 786447, null, metadata !"", null, i32 0, i64 32, i64 32, i64 0, i32 0, metadata !168} ; [ DW_TAG_pointer_type ]
!168 = metadata !{i32 786470, null, metadata !"", null, i32 0, i64 0, i64 0, i64 0, i32 0, metadata !169} ; [ DW_TAG_const_type ]
!169 = metadata !{i32 786468, null, metadata !"char", null, i32 0, i64 8, i64 8, i64 0, i32 0, i32 6} ; [ DW_TAG_base_type ]
!170 = metadata !{i32 786478, i32 0, metadata !69, metadata !"ap_int_base", metadata !"ap_int_base", metadata !"", metadata !70, i32 1508, metadata !171, i1 false, i1 false, i32 0, i32 0, null, i32 256, i1 false, null, null, i32 0, metadata !82, i32 1508} ; [ DW_TAG_subprogram ]
!171 = metadata !{i32 786453, i32 0, metadata !"", i32 0, i32 0, i64 0, i64 0, i64 0, i32 0, null, metadata !172, i32 0, i32 0} ; [ DW_TAG_subroutine_type ]
!172 = metadata !{null, metadata !92, metadata !167, metadata !113}
!173 = metadata !{i32 786478, i32 0, metadata !69, metadata !"read", metadata !"read", metadata !"_ZNV11ap_int_baseILi8ELb0ELb1EE4readEv", metadata !70, i32 1529, metadata !174, i1 false, i1 false, i32 0, i32 0, null, i32 256, i1 false, null, null, i32 0, metadata !82, i32 1529} ; [ DW_TAG_subprogram ]
!174 = metadata !{i32 786453, i32 0, metadata !"", i32 0, i32 0, i64 0, i64 0, i64 0, i32 0, null, metadata !175, i32 0, i32 0} ; [ DW_TAG_subroutine_type ]
!175 = metadata !{metadata !69, metadata !176}
!176 = metadata !{i32 786447, i32 0, metadata !"", i32 0, i32 0, i64 32, i64 32, i64 0, i32 64, metadata !106} ; [ DW_TAG_pointer_type ]
!177 = metadata !{i32 786478, i32 0, metadata !69, metadata !"write", metadata !"write", metadata !"_ZNV11ap_int_baseILi8ELb0ELb1EE5writeERKS0_", metadata !70, i32 1535, metadata !178, i1 false, i1 false, i32 0, i32 0, null, i32 256, i1 false, null, null, i32 0, metadata !82, i32 1535} ; [ DW_TAG_subprogram ]
!178 = metadata !{i32 786453, i32 0, metadata !"", i32 0, i32 0, i64 0, i64 0, i64 0, i32 0, null, metadata !179, i32 0, i32 0} ; [ DW_TAG_subroutine_type ]
!179 = metadata !{null, metadata !176, metadata !96}
!180 = metadata !{i32 786478, i32 0, metadata !69, metadata !"operator=", metadata !"operator=", metadata !"_ZNV11ap_int_baseILi8ELb0ELb1EEaSERVKS0_", metadata !70, i32 1547, metadata !181, i1 false, i1 false, i32 0, i32 0, null, i32 256, i1 false, null, null, i32 0, metadata !82, i32 1547} ; [ DW_TAG_subprogram ]
!181 = metadata !{i32 786453, i32 0, metadata !"", i32 0, i32 0, i64 0, i64 0, i64 0, i32 0, null, metadata !182, i32 0, i32 0} ; [ DW_TAG_subroutine_type ]
!182 = metadata !{null, metadata !176, metadata !104}
!183 = metadata !{i32 786478, i32 0, metadata !69, metadata !"operator=", metadata !"operator=", metadata !"_ZNV11ap_int_baseILi8ELb0ELb1EEaSERKS0_", metadata !70, i32 1556, metadata !178, i1 false, i1 false, i32 0, i32 0, null, i32 256, i1 false, null, null, i32 0, metadata !82, i32 1556} ; [ DW_TAG_subprogram ]
!184 = metadata !{i32 786478, i32 0, metadata !69, metadata !"operator=", metadata !"operator=", metadata !"_ZN11ap_int_baseILi8ELb0ELb1EEaSERVKS0_", metadata !70, i32 1579, metadata !185, i1 false, i1 false, i32 0, i32 0, null, i32 256, i1 false, null, null, i32 0, metadata !82, i32 1579} ; [ DW_TAG_subprogram ]
!185 = metadata !{i32 786453, i32 0, metadata !"", i32 0, i32 0, i64 0, i64 0, i64 0, i32 0, null, metadata !186, i32 0, i32 0} ; [ DW_TAG_subroutine_type ]
!186 = metadata !{metadata !187, metadata !92, metadata !104}
!187 = metadata !{i32 786448, null, null, null, i32 0, i64 0, i64 0, i64 0, i32 0, metadata !69} ; [ DW_TAG_reference_type ]
!188 = metadata !{i32 786478, i32 0, metadata !69, metadata !"operator=", metadata !"operator=", metadata !"_ZN11ap_int_baseILi8ELb0ELb1EEaSERKS0_", metadata !70, i32 1584, metadata !189, i1 false, i1 false, i32 0, i32 0, null, i32 256, i1 false, null, null, i32 0, metadata !82, i32 1584} ; [ DW_TAG_subprogram ]
!189 = metadata !{i32 786453, i32 0, metadata !"", i32 0, i32 0, i64 0, i64 0, i64 0, i32 0, null, metadata !190, i32 0, i32 0} ; [ DW_TAG_subroutine_type ]
!190 = metadata !{metadata !187, metadata !92, metadata !96}
!191 = metadata !{i32 786478, i32 0, metadata !69, metadata !"operator=", metadata !"operator=", metadata !"_ZN11ap_int_baseILi8ELb0ELb1EEaSEPKc", metadata !70, i32 1588, metadata !192, i1 false, i1 false, i32 0, i32 0, null, i32 256, i1 false, null, null, i32 0, metadata !82, i32 1588} ; [ DW_TAG_subprogram ]
!192 = metadata !{i32 786453, i32 0, metadata !"", i32 0, i32 0, i64 0, i64 0, i64 0, i32 0, null, metadata !193, i32 0, i32 0} ; [ DW_TAG_subroutine_type ]
!193 = metadata !{metadata !187, metadata !92, metadata !167}
!194 = metadata !{i32 786478, i32 0, metadata !69, metadata !"set", metadata !"set", metadata !"_ZN11ap_int_baseILi8ELb0ELb1EE3setEPKca", metadata !70, i32 1596, metadata !195, i1 false, i1 false, i32 0, i32 0, null, i32 256, i1 false, null, null, i32 0, metadata !82, i32 1596} ; [ DW_TAG_subprogram ]
!195 = metadata !{i32 786453, i32 0, metadata !"", i32 0, i32 0, i64 0, i64 0, i64 0, i32 0, null, metadata !196, i32 0, i32 0} ; [ DW_TAG_subroutine_type ]
!196 = metadata !{metadata !187, metadata !92, metadata !167, metadata !113}
!197 = metadata !{i32 786478, i32 0, metadata !69, metadata !"operator=", metadata !"operator=", metadata !"_ZN11ap_int_baseILi8ELb0ELb1EEaSEa", metadata !70, i32 1610, metadata !198, i1 false, i1 false, i32 0, i32 0, null, i32 256, i1 false, null, null, i32 0, metadata !82, i32 1610} ; [ DW_TAG_subprogram ]
!198 = metadata !{i32 786453, i32 0, metadata !"", i32 0, i32 0, i64 0, i64 0, i64 0, i32 0, null, metadata !199, i32 0, i32 0} ; [ DW_TAG_subroutine_type ]
!199 = metadata !{metadata !187, metadata !92, metadata !113}
!200 = metadata !{i32 786478, i32 0, metadata !69, metadata !"operator=", metadata !"operator=", metadata !"_ZN11ap_int_baseILi8ELb0ELb1EEaSEh", metadata !70, i32 1611, metadata !201, i1 false, i1 false, i32 0, i32 0, null, i32 256, i1 false, null, null, i32 0, metadata !82, i32 1611} ; [ DW_TAG_subprogram ]
!201 = metadata !{i32 786453, i32 0, metadata !"", i32 0, i32 0, i64 0, i64 0, i64 0, i32 0, null, metadata !202, i32 0, i32 0} ; [ DW_TAG_subroutine_type ]
!202 = metadata !{metadata !187, metadata !92, metadata !117}
!203 = metadata !{i32 786478, i32 0, metadata !69, metadata !"operator=", metadata !"operator=", metadata !"_ZN11ap_int_baseILi8ELb0ELb1EEaSEs", metadata !70, i32 1612, metadata !204, i1 false, i1 false, i32 0, i32 0, null, i32 256, i1 false, null, null, i32 0, metadata !82, i32 1612} ; [ DW_TAG_subprogram ]
!204 = metadata !{i32 786453, i32 0, metadata !"", i32 0, i32 0, i64 0, i64 0, i64 0, i32 0, null, metadata !205, i32 0, i32 0} ; [ DW_TAG_subroutine_type ]
!205 = metadata !{metadata !187, metadata !92, metadata !121}
!206 = metadata !{i32 786478, i32 0, metadata !69, metadata !"operator=", metadata !"operator=", metadata !"_ZN11ap_int_baseILi8ELb0ELb1EEaSEt", metadata !70, i32 1613, metadata !207, i1 false, i1 false, i32 0, i32 0, null, i32 256, i1 false, null, null, i32 0, metadata !82, i32 1613} ; [ DW_TAG_subprogram ]
!207 = metadata !{i32 786453, i32 0, metadata !"", i32 0, i32 0, i64 0, i64 0, i64 0, i32 0, null, metadata !208, i32 0, i32 0} ; [ DW_TAG_subroutine_type ]
!208 = metadata !{metadata !187, metadata !92, metadata !125}
!209 = metadata !{i32 786478, i32 0, metadata !69, metadata !"operator=", metadata !"operator=", metadata !"_ZN11ap_int_baseILi8ELb0ELb1EEaSEi", metadata !70, i32 1614, metadata !210, i1 false, i1 false, i32 0, i32 0, null, i32 256, i1 false, null, null, i32 0, metadata !82, i32 1614} ; [ DW_TAG_subprogram ]
!210 = metadata !{i32 786453, i32 0, metadata !"", i32 0, i32 0, i64 0, i64 0, i64 0, i32 0, null, metadata !211, i32 0, i32 0} ; [ DW_TAG_subroutine_type ]
!211 = metadata !{metadata !187, metadata !92, metadata !86}
!212 = metadata !{i32 786478, i32 0, metadata !69, metadata !"operator=", metadata !"operator=", metadata !"_ZN11ap_int_baseILi8ELb0ELb1EEaSEj", metadata !70, i32 1615, metadata !213, i1 false, i1 false, i32 0, i32 0, null, i32 256, i1 false, null, null, i32 0, metadata !82, i32 1615} ; [ DW_TAG_subprogram ]
!213 = metadata !{i32 786453, i32 0, metadata !"", i32 0, i32 0, i64 0, i64 0, i64 0, i32 0, null, metadata !214, i32 0, i32 0} ; [ DW_TAG_subroutine_type ]
!214 = metadata !{metadata !187, metadata !92, metadata !132}
!215 = metadata !{i32 786478, i32 0, metadata !69, metadata !"operator=", metadata !"operator=", metadata !"_ZN11ap_int_baseILi8ELb0ELb1EEaSEx", metadata !70, i32 1616, metadata !216, i1 false, i1 false, i32 0, i32 0, null, i32 256, i1 false, null, null, i32 0, metadata !82, i32 1616} ; [ DW_TAG_subprogram ]
!216 = metadata !{i32 786453, i32 0, metadata !"", i32 0, i32 0, i64 0, i64 0, i64 0, i32 0, null, metadata !217, i32 0, i32 0} ; [ DW_TAG_subroutine_type ]
!217 = metadata !{metadata !187, metadata !92, metadata !144}
!218 = metadata !{i32 786478, i32 0, metadata !69, metadata !"operator=", metadata !"operator=", metadata !"_ZN11ap_int_baseILi8ELb0ELb1EEaSEy", metadata !70, i32 1617, metadata !219, i1 false, i1 false, i32 0, i32 0, null, i32 256, i1 false, null, null, i32 0, metadata !82, i32 1617} ; [ DW_TAG_subprogram ]
!219 = metadata !{i32 786453, i32 0, metadata !"", i32 0, i32 0, i64 0, i64 0, i64 0, i32 0, null, metadata !220, i32 0, i32 0} ; [ DW_TAG_subroutine_type ]
!220 = metadata !{metadata !187, metadata !92, metadata !149}
!221 = metadata !{i32 786478, i32 0, metadata !69, metadata !"operator unsigned char", metadata !"operator unsigned char", metadata !"_ZNK11ap_int_baseILi8ELb0ELb1EEcvhEv", metadata !70, i32 1655, metadata !222, i1 false, i1 false, i32 0, i32 0, null, i32 256, i1 false, null, null, i32 0, metadata !82, i32 1655} ; [ DW_TAG_subprogram ]
!222 = metadata !{i32 786453, i32 0, metadata !"", i32 0, i32 0, i64 0, i64 0, i64 0, i32 0, null, metadata !223, i32 0, i32 0} ; [ DW_TAG_subroutine_type ]
!223 = metadata !{metadata !224, metadata !230}
!224 = metadata !{i32 786454, metadata !69, metadata !"RetType", metadata !70, i32 1403, i64 0, i64 0, i64 0, i32 0, metadata !225} ; [ DW_TAG_typedef ]
!225 = metadata !{i32 786454, metadata !226, metadata !"Type", metadata !70, i32 1371, i64 0, i64 0, i64 0, i32 0, metadata !117} ; [ DW_TAG_typedef ]
!226 = metadata !{i32 786434, null, metadata !"retval<1, false>", metadata !70, i32 1370, i64 8, i64 8, i32 0, i32 0, null, metadata !227, i32 0, null, metadata !228} ; [ DW_TAG_class_type ]
!227 = metadata !{i32 0}
!228 = metadata !{metadata !229, metadata !87}
!229 = metadata !{i32 786480, null, metadata !"_AP_N", metadata !86, i64 1, null, i32 0, i32 0} ; [ DW_TAG_template_value_parameter ]
!230 = metadata !{i32 786447, i32 0, metadata !"", i32 0, i32 0, i64 32, i64 32, i64 0, i32 64, metadata !97} ; [ DW_TAG_pointer_type ]
!231 = metadata !{i32 786478, i32 0, metadata !69, metadata !"to_bool", metadata !"to_bool", metadata !"_ZNK11ap_int_baseILi8ELb0ELb1EE7to_boolEv", metadata !70, i32 1661, metadata !232, i1 false, i1 false, i32 0, i32 0, null, i32 256, i1 false, null, null, i32 0, metadata !82, i32 1661} ; [ DW_TAG_subprogram ]
!232 = metadata !{i32 786453, i32 0, metadata !"", i32 0, i32 0, i64 0, i64 0, i64 0, i32 0, null, metadata !233, i32 0, i32 0} ; [ DW_TAG_subroutine_type ]
!233 = metadata !{metadata !88, metadata !230}
!234 = metadata !{i32 786478, i32 0, metadata !69, metadata !"to_uchar", metadata !"to_uchar", metadata !"_ZNK11ap_int_baseILi8ELb0ELb1EE8to_ucharEv", metadata !70, i32 1662, metadata !235, i1 false, i1 false, i32 0, i32 0, null, i32 256, i1 false, null, null, i32 0, metadata !82, i32 1662} ; [ DW_TAG_subprogram ]
!235 = metadata !{i32 786453, i32 0, metadata !"", i32 0, i32 0, i64 0, i64 0, i64 0, i32 0, null, metadata !236, i32 0, i32 0} ; [ DW_TAG_subroutine_type ]
!236 = metadata !{metadata !117, metadata !230}
!237 = metadata !{i32 786478, i32 0, metadata !69, metadata !"to_char", metadata !"to_char", metadata !"_ZNK11ap_int_baseILi8ELb0ELb1EE7to_charEv", metadata !70, i32 1663, metadata !238, i1 false, i1 false, i32 0, i32 0, null, i32 256, i1 false, null, null, i32 0, metadata !82, i32 1663} ; [ DW_TAG_subprogram ]
!238 = metadata !{i32 786453, i32 0, metadata !"", i32 0, i32 0, i64 0, i64 0, i64 0, i32 0, null, metadata !239, i32 0, i32 0} ; [ DW_TAG_subroutine_type ]
!239 = metadata !{metadata !113, metadata !230}
!240 = metadata !{i32 786478, i32 0, metadata !69, metadata !"to_ushort", metadata !"to_ushort", metadata !"_ZNK11ap_int_baseILi8ELb0ELb1EE9to_ushortEv", metadata !70, i32 1664, metadata !241, i1 false, i1 false, i32 0, i32 0, null, i32 256, i1 false, null, null, i32 0, metadata !82, i32 1664} ; [ DW_TAG_subprogram ]
!241 = metadata !{i32 786453, i32 0, metadata !"", i32 0, i32 0, i64 0, i64 0, i64 0, i32 0, null, metadata !242, i32 0, i32 0} ; [ DW_TAG_subroutine_type ]
!242 = metadata !{metadata !125, metadata !230}
!243 = metadata !{i32 786478, i32 0, metadata !69, metadata !"to_short", metadata !"to_short", metadata !"_ZNK11ap_int_baseILi8ELb0ELb1EE8to_shortEv", metadata !70, i32 1665, metadata !244, i1 false, i1 false, i32 0, i32 0, null, i32 256, i1 false, null, null, i32 0, metadata !82, i32 1665} ; [ DW_TAG_subprogram ]
!244 = metadata !{i32 786453, i32 0, metadata !"", i32 0, i32 0, i64 0, i64 0, i64 0, i32 0, null, metadata !245, i32 0, i32 0} ; [ DW_TAG_subroutine_type ]
!245 = metadata !{metadata !121, metadata !230}
!246 = metadata !{i32 786478, i32 0, metadata !69, metadata !"to_int", metadata !"to_int", metadata !"_ZNK11ap_int_baseILi8ELb0ELb1EE6to_intEv", metadata !70, i32 1666, metadata !247, i1 false, i1 false, i32 0, i32 0, null, i32 256, i1 false, null, null, i32 0, metadata !82, i32 1666} ; [ DW_TAG_subprogram ]
!247 = metadata !{i32 786453, i32 0, metadata !"", i32 0, i32 0, i64 0, i64 0, i64 0, i32 0, null, metadata !248, i32 0, i32 0} ; [ DW_TAG_subroutine_type ]
!248 = metadata !{metadata !86, metadata !230}
!249 = metadata !{i32 786478, i32 0, metadata !69, metadata !"to_uint", metadata !"to_uint", metadata !"_ZNK11ap_int_baseILi8ELb0ELb1EE7to_uintEv", metadata !70, i32 1667, metadata !250, i1 false, i1 false, i32 0, i32 0, null, i32 256, i1 false, null, null, i32 0, metadata !82, i32 1667} ; [ DW_TAG_subprogram ]
!250 = metadata !{i32 786453, i32 0, metadata !"", i32 0, i32 0, i64 0, i64 0, i64 0, i32 0, null, metadata !251, i32 0, i32 0} ; [ DW_TAG_subroutine_type ]
!251 = metadata !{metadata !132, metadata !230}
!252 = metadata !{i32 786478, i32 0, metadata !69, metadata !"to_long", metadata !"to_long", metadata !"_ZNK11ap_int_baseILi8ELb0ELb1EE7to_longEv", metadata !70, i32 1668, metadata !253, i1 false, i1 false, i32 0, i32 0, null, i32 256, i1 false, null, null, i32 0, metadata !82, i32 1668} ; [ DW_TAG_subprogram ]
!253 = metadata !{i32 786453, i32 0, metadata !"", i32 0, i32 0, i64 0, i64 0, i64 0, i32 0, null, metadata !254, i32 0, i32 0} ; [ DW_TAG_subroutine_type ]
!254 = metadata !{metadata !136, metadata !230}
!255 = metadata !{i32 786478, i32 0, metadata !69, metadata !"to_ulong", metadata !"to_ulong", metadata !"_ZNK11ap_int_baseILi8ELb0ELb1EE8to_ulongEv", metadata !70, i32 1669, metadata !256, i1 false, i1 false, i32 0, i32 0, null, i32 256, i1 false, null, null, i32 0, metadata !82, i32 1669} ; [ DW_TAG_subprogram ]
!256 = metadata !{i32 786453, i32 0, metadata !"", i32 0, i32 0, i64 0, i64 0, i64 0, i32 0, null, metadata !257, i32 0, i32 0} ; [ DW_TAG_subroutine_type ]
!257 = metadata !{metadata !140, metadata !230}
!258 = metadata !{i32 786478, i32 0, metadata !69, metadata !"to_int64", metadata !"to_int64", metadata !"_ZNK11ap_int_baseILi8ELb0ELb1EE8to_int64Ev", metadata !70, i32 1670, metadata !259, i1 false, i1 false, i32 0, i32 0, null, i32 256, i1 false, null, null, i32 0, metadata !82, i32 1670} ; [ DW_TAG_subprogram ]
!259 = metadata !{i32 786453, i32 0, metadata !"", i32 0, i32 0, i64 0, i64 0, i64 0, i32 0, null, metadata !260, i32 0, i32 0} ; [ DW_TAG_subroutine_type ]
!260 = metadata !{metadata !144, metadata !230}
!261 = metadata !{i32 786478, i32 0, metadata !69, metadata !"to_uint64", metadata !"to_uint64", metadata !"_ZNK11ap_int_baseILi8ELb0ELb1EE9to_uint64Ev", metadata !70, i32 1671, metadata !262, i1 false, i1 false, i32 0, i32 0, null, i32 256, i1 false, null, null, i32 0, metadata !82, i32 1671} ; [ DW_TAG_subprogram ]
!262 = metadata !{i32 786453, i32 0, metadata !"", i32 0, i32 0, i64 0, i64 0, i64 0, i32 0, null, metadata !263, i32 0, i32 0} ; [ DW_TAG_subroutine_type ]
!263 = metadata !{metadata !149, metadata !230}
!264 = metadata !{i32 786478, i32 0, metadata !69, metadata !"to_double", metadata !"to_double", metadata !"_ZNK11ap_int_baseILi8ELb0ELb1EE9to_doubleEv", metadata !70, i32 1672, metadata !265, i1 false, i1 false, i32 0, i32 0, null, i32 256, i1 false, null, null, i32 0, metadata !82, i32 1672} ; [ DW_TAG_subprogram ]
!265 = metadata !{i32 786453, i32 0, metadata !"", i32 0, i32 0, i64 0, i64 0, i64 0, i32 0, null, metadata !266, i32 0, i32 0} ; [ DW_TAG_subroutine_type ]
!266 = metadata !{metadata !163, metadata !230}
!267 = metadata !{i32 786478, i32 0, metadata !69, metadata !"length", metadata !"length", metadata !"_ZNK11ap_int_baseILi8ELb0ELb1EE6lengthEv", metadata !70, i32 1686, metadata !247, i1 false, i1 false, i32 0, i32 0, null, i32 256, i1 false, null, null, i32 0, metadata !82, i32 1686} ; [ DW_TAG_subprogram ]
!268 = metadata !{i32 786478, i32 0, metadata !69, metadata !"length", metadata !"length", metadata !"_ZNVK11ap_int_baseILi8ELb0ELb1EE6lengthEv", metadata !70, i32 1687, metadata !269, i1 false, i1 false, i32 0, i32 0, null, i32 256, i1 false, null, null, i32 0, metadata !82, i32 1687} ; [ DW_TAG_subprogram ]
!269 = metadata !{i32 786453, i32 0, metadata !"", i32 0, i32 0, i64 0, i64 0, i64 0, i32 0, null, metadata !270, i32 0, i32 0} ; [ DW_TAG_subroutine_type ]
!270 = metadata !{metadata !86, metadata !271}
!271 = metadata !{i32 786447, i32 0, metadata !"", i32 0, i32 0, i64 32, i64 32, i64 0, i32 64, metadata !105} ; [ DW_TAG_pointer_type ]
!272 = metadata !{i32 786478, i32 0, metadata !69, metadata !"reverse", metadata !"reverse", metadata !"_ZN11ap_int_baseILi8ELb0ELb1EE7reverseEv", metadata !70, i32 1692, metadata !273, i1 false, i1 false, i32 0, i32 0, null, i32 256, i1 false, null, null, i32 0, metadata !82, i32 1692} ; [ DW_TAG_subprogram ]
!273 = metadata !{i32 786453, i32 0, metadata !"", i32 0, i32 0, i64 0, i64 0, i64 0, i32 0, null, metadata !274, i32 0, i32 0} ; [ DW_TAG_subroutine_type ]
!274 = metadata !{metadata !187, metadata !92}
!275 = metadata !{i32 786478, i32 0, metadata !69, metadata !"iszero", metadata !"iszero", metadata !"_ZNK11ap_int_baseILi8ELb0ELb1EE6iszeroEv", metadata !70, i32 1698, metadata !232, i1 false, i1 false, i32 0, i32 0, null, i32 256, i1 false, null, null, i32 0, metadata !82, i32 1698} ; [ DW_TAG_subprogram ]
!276 = metadata !{i32 786478, i32 0, metadata !69, metadata !"is_zero", metadata !"is_zero", metadata !"_ZNK11ap_int_baseILi8ELb0ELb1EE7is_zeroEv", metadata !70, i32 1703, metadata !232, i1 false, i1 false, i32 0, i32 0, null, i32 256, i1 false, null, null, i32 0, metadata !82, i32 1703} ; [ DW_TAG_subprogram ]
!277 = metadata !{i32 786478, i32 0, metadata !69, metadata !"sign", metadata !"sign", metadata !"_ZNK11ap_int_baseILi8ELb0ELb1EE4signEv", metadata !70, i32 1708, metadata !232, i1 false, i1 false, i32 0, i32 0, null, i32 256, i1 false, null, null, i32 0, metadata !82, i32 1708} ; [ DW_TAG_subprogram ]
!278 = metadata !{i32 786478, i32 0, metadata !69, metadata !"clear", metadata !"clear", metadata !"_ZN11ap_int_baseILi8ELb0ELb1EE5clearEi", metadata !70, i32 1716, metadata !127, i1 false, i1 false, i32 0, i32 0, null, i32 256, i1 false, null, null, i32 0, metadata !82, i32 1716} ; [ DW_TAG_subprogram ]
!279 = metadata !{i32 786478, i32 0, metadata !69, metadata !"invert", metadata !"invert", metadata !"_ZN11ap_int_baseILi8ELb0ELb1EE6invertEi", metadata !70, i32 1722, metadata !127, i1 false, i1 false, i32 0, i32 0, null, i32 256, i1 false, null, null, i32 0, metadata !82, i32 1722} ; [ DW_TAG_subprogram ]
!280 = metadata !{i32 786478, i32 0, metadata !69, metadata !"test", metadata !"test", metadata !"_ZNK11ap_int_baseILi8ELb0ELb1EE4testEi", metadata !70, i32 1730, metadata !281, i1 false, i1 false, i32 0, i32 0, null, i32 256, i1 false, null, null, i32 0, metadata !82, i32 1730} ; [ DW_TAG_subprogram ]
!281 = metadata !{i32 786453, i32 0, metadata !"", i32 0, i32 0, i64 0, i64 0, i64 0, i32 0, null, metadata !282, i32 0, i32 0} ; [ DW_TAG_subroutine_type ]
!282 = metadata !{metadata !88, metadata !230, metadata !86}
!283 = metadata !{i32 786478, i32 0, metadata !69, metadata !"set", metadata !"set", metadata !"_ZN11ap_int_baseILi8ELb0ELb1EE3setEi", metadata !70, i32 1736, metadata !127, i1 false, i1 false, i32 0, i32 0, null, i32 256, i1 false, null, null, i32 0, metadata !82, i32 1736} ; [ DW_TAG_subprogram ]
!284 = metadata !{i32 786478, i32 0, metadata !69, metadata !"set", metadata !"set", metadata !"_ZN11ap_int_baseILi8ELb0ELb1EE3setEib", metadata !70, i32 1742, metadata !285, i1 false, i1 false, i32 0, i32 0, null, i32 256, i1 false, null, null, i32 0, metadata !82, i32 1742} ; [ DW_TAG_subprogram ]
!285 = metadata !{i32 786453, i32 0, metadata !"", i32 0, i32 0, i64 0, i64 0, i64 0, i32 0, null, metadata !286, i32 0, i32 0} ; [ DW_TAG_subroutine_type ]
!286 = metadata !{null, metadata !92, metadata !86, metadata !88}
!287 = metadata !{i32 786478, i32 0, metadata !69, metadata !"lrotate", metadata !"lrotate", metadata !"_ZN11ap_int_baseILi8ELb0ELb1EE7lrotateEi", metadata !70, i32 1749, metadata !127, i1 false, i1 false, i32 0, i32 0, null, i32 256, i1 false, null, null, i32 0, metadata !82, i32 1749} ; [ DW_TAG_subprogram ]
!288 = metadata !{i32 786478, i32 0, metadata !69, metadata !"rrotate", metadata !"rrotate", metadata !"_ZN11ap_int_baseILi8ELb0ELb1EE7rrotateEi", metadata !70, i32 1758, metadata !127, i1 false, i1 false, i32 0, i32 0, null, i32 256, i1 false, null, null, i32 0, metadata !82, i32 1758} ; [ DW_TAG_subprogram ]
!289 = metadata !{i32 786478, i32 0, metadata !69, metadata !"set_bit", metadata !"set_bit", metadata !"_ZN11ap_int_baseILi8ELb0ELb1EE7set_bitEib", metadata !70, i32 1766, metadata !285, i1 false, i1 false, i32 0, i32 0, null, i32 256, i1 false, null, null, i32 0, metadata !82, i32 1766} ; [ DW_TAG_subprogram ]
!290 = metadata !{i32 786478, i32 0, metadata !69, metadata !"get_bit", metadata !"get_bit", metadata !"_ZNK11ap_int_baseILi8ELb0ELb1EE7get_bitEi", metadata !70, i32 1771, metadata !281, i1 false, i1 false, i32 0, i32 0, null, i32 256, i1 false, null, null, i32 0, metadata !82, i32 1771} ; [ DW_TAG_subprogram ]
!291 = metadata !{i32 786478, i32 0, metadata !69, metadata !"b_not", metadata !"b_not", metadata !"_ZN11ap_int_baseILi8ELb0ELb1EE5b_notEv", metadata !70, i32 1776, metadata !90, i1 false, i1 false, i32 0, i32 0, null, i32 256, i1 false, null, null, i32 0, metadata !82, i32 1776} ; [ DW_TAG_subprogram ]
!292 = metadata !{i32 786478, i32 0, metadata !69, metadata !"countLeadingZeros", metadata !"countLeadingZeros", metadata !"_ZN11ap_int_baseILi8ELb0ELb1EE17countLeadingZerosEv", metadata !70, i32 1783, metadata !293, i1 false, i1 false, i32 0, i32 0, null, i32 256, i1 false, null, null, i32 0, metadata !82, i32 1783} ; [ DW_TAG_subprogram ]
!293 = metadata !{i32 786453, i32 0, metadata !"", i32 0, i32 0, i64 0, i64 0, i64 0, i32 0, null, metadata !294, i32 0, i32 0} ; [ DW_TAG_subroutine_type ]
!294 = metadata !{metadata !86, metadata !92}
!295 = metadata !{i32 786478, i32 0, metadata !69, metadata !"operator++", metadata !"operator++", metadata !"_ZN11ap_int_baseILi8ELb0ELb1EEppEv", metadata !70, i32 1840, metadata !273, i1 false, i1 false, i32 0, i32 0, null, i32 256, i1 false, null, null, i32 0, metadata !82, i32 1840} ; [ DW_TAG_subprogram ]
!296 = metadata !{i32 786478, i32 0, metadata !69, metadata !"operator--", metadata !"operator--", metadata !"_ZN11ap_int_baseILi8ELb0ELb1EEmmEv", metadata !70, i32 1844, metadata !273, i1 false, i1 false, i32 0, i32 0, null, i32 256, i1 false, null, null, i32 0, metadata !82, i32 1844} ; [ DW_TAG_subprogram ]
!297 = metadata !{i32 786478, i32 0, metadata !69, metadata !"operator++", metadata !"operator++", metadata !"_ZN11ap_int_baseILi8ELb0ELb1EEppEi", metadata !70, i32 1852, metadata !298, i1 false, i1 false, i32 0, i32 0, null, i32 256, i1 false, null, null, i32 0, metadata !82, i32 1852} ; [ DW_TAG_subprogram ]
!298 = metadata !{i32 786453, i32 0, metadata !"", i32 0, i32 0, i64 0, i64 0, i64 0, i32 0, null, metadata !299, i32 0, i32 0} ; [ DW_TAG_subroutine_type ]
!299 = metadata !{metadata !97, metadata !92, metadata !86}
!300 = metadata !{i32 786478, i32 0, metadata !69, metadata !"operator--", metadata !"operator--", metadata !"_ZN11ap_int_baseILi8ELb0ELb1EEmmEi", metadata !70, i32 1857, metadata !298, i1 false, i1 false, i32 0, i32 0, null, i32 256, i1 false, null, null, i32 0, metadata !82, i32 1857} ; [ DW_TAG_subprogram ]
!301 = metadata !{i32 786478, i32 0, metadata !69, metadata !"operator+", metadata !"operator+", metadata !"_ZNK11ap_int_baseILi8ELb0ELb1EEpsEv", metadata !70, i32 1866, metadata !302, i1 false, i1 false, i32 0, i32 0, null, i32 256, i1 false, null, null, i32 0, metadata !82, i32 1866} ; [ DW_TAG_subprogram ]
!302 = metadata !{i32 786453, i32 0, metadata !"", i32 0, i32 0, i64 0, i64 0, i64 0, i32 0, null, metadata !303, i32 0, i32 0} ; [ DW_TAG_subroutine_type ]
!303 = metadata !{metadata !69, metadata !230}
!304 = metadata !{i32 786478, i32 0, metadata !69, metadata !"operator!", metadata !"operator!", metadata !"_ZNK11ap_int_baseILi8ELb0ELb1EEntEv", metadata !70, i32 1872, metadata !232, i1 false, i1 false, i32 0, i32 0, null, i32 256, i1 false, null, null, i32 0, metadata !82, i32 1872} ; [ DW_TAG_subprogram ]
!305 = metadata !{i32 786478, i32 0, metadata !69, metadata !"operator-", metadata !"operator-", metadata !"_ZNK11ap_int_baseILi8ELb0ELb1EEngEv", metadata !70, i32 1877, metadata !306, i1 false, i1 false, i32 0, i32 0, null, i32 256, i1 false, null, null, i32 0, metadata !82, i32 1877} ; [ DW_TAG_subprogram ]
!306 = metadata !{i32 786453, i32 0, metadata !"", i32 0, i32 0, i64 0, i64 0, i64 0, i32 0, null, metadata !307, i32 0, i32 0} ; [ DW_TAG_subroutine_type ]
!307 = metadata !{metadata !308, metadata !230}
!308 = metadata !{i32 786434, null, metadata !"ap_int_base<9, true, true>", metadata !70, i32 1398, i64 16, i64 16, i32 0, i32 0, null, metadata !309, i32 0, null, metadata !595} ; [ DW_TAG_class_type ]
!309 = metadata !{metadata !310, metadata !322, metadata !326, metadata !329, metadata !332, metadata !335, metadata !338, metadata !341, metadata !344, metadata !347, metadata !350, metadata !353, metadata !356, metadata !359, metadata !362, metadata !365, metadata !368, metadata !371, metadata !374, metadata !379, metadata !384, metadata !389, metadata !390, metadata !394, metadata !397, metadata !400, metadata !403, metadata !406, metadata !409, metadata !412, metadata !415, metadata !418, metadata !421, metadata !424, metadata !427, metadata !436, metadata !439, metadata !442, metadata !445, metadata !448, metadata !451, metadata !454, metadata !457, metadata !460, metadata !463, metadata !466, metadata !469, metadata !472, metadata !473, metadata !477, metadata !480, metadata !481, metadata !482, metadata !483, metadata !484, metadata !485, metadata !488, metadata !489, metadata !492, metadata !493, metadata !494, metadata !495, metadata !496, metadata !497, metadata !500, metadata !501, metadata !502, metadata !505, metadata !506, metadata !509, metadata !510, metadata !514, metadata !518, metadata !519, metadata !522, metadata !523, metadata !562, metadata !563, metadata !564, metadata !565, metadata !568, metadata !569, metadata !570, metadata !571, metadata !572, metadata !573, metadata !574, metadata !575, metadata !576, metadata !577, metadata !578, metadata !579, metadata !589, metadata !592}
!310 = metadata !{i32 786460, metadata !308, null, metadata !70, i32 0, i64 0, i64 0, i64 0, i32 0, metadata !311} ; [ DW_TAG_inheritance ]
!311 = metadata !{i32 786434, null, metadata !"ssdm_int<9 + 1024 * 0, true>", metadata !74, i32 11, i64 16, i64 16, i32 0, i32 0, null, metadata !312, i32 0, null, metadata !319} ; [ DW_TAG_class_type ]
!312 = metadata !{metadata !313, metadata !315}
!313 = metadata !{i32 786445, metadata !311, metadata !"V", metadata !74, i32 11, i64 9, i64 16, i64 0, i32 0, metadata !314} ; [ DW_TAG_member ]
!314 = metadata !{i32 786468, null, metadata !"int9", null, i32 0, i64 9, i64 16, i64 0, i32 0, i32 5} ; [ DW_TAG_base_type ]
!315 = metadata !{i32 786478, i32 0, metadata !311, metadata !"ssdm_int", metadata !"ssdm_int", metadata !"", metadata !74, i32 11, metadata !316, i1 false, i1 false, i32 0, i32 0, null, i32 256, i1 false, null, null, i32 0, metadata !82, i32 11} ; [ DW_TAG_subprogram ]
!316 = metadata !{i32 786453, i32 0, metadata !"", i32 0, i32 0, i64 0, i64 0, i64 0, i32 0, null, metadata !317, i32 0, i32 0} ; [ DW_TAG_subroutine_type ]
!317 = metadata !{null, metadata !318}
!318 = metadata !{i32 786447, i32 0, metadata !"", i32 0, i32 0, i64 32, i64 32, i64 0, i32 64, metadata !311} ; [ DW_TAG_pointer_type ]
!319 = metadata !{metadata !320, metadata !321}
!320 = metadata !{i32 786480, null, metadata !"_AP_N", metadata !86, i64 9, null, i32 0, i32 0} ; [ DW_TAG_template_value_parameter ]
!321 = metadata !{i32 786480, null, metadata !"_AP_S", metadata !88, i64 1, null, i32 0, i32 0} ; [ DW_TAG_template_value_parameter ]
!322 = metadata !{i32 786478, i32 0, metadata !308, metadata !"ap_int_base", metadata !"ap_int_base", metadata !"", metadata !70, i32 1439, metadata !323, i1 false, i1 false, i32 0, i32 0, null, i32 256, i1 false, null, null, i32 0, metadata !82, i32 1439} ; [ DW_TAG_subprogram ]
!323 = metadata !{i32 786453, i32 0, metadata !"", i32 0, i32 0, i64 0, i64 0, i64 0, i32 0, null, metadata !324, i32 0, i32 0} ; [ DW_TAG_subroutine_type ]
!324 = metadata !{null, metadata !325}
!325 = metadata !{i32 786447, i32 0, metadata !"", i32 0, i32 0, i64 32, i64 32, i64 0, i32 64, metadata !308} ; [ DW_TAG_pointer_type ]
!326 = metadata !{i32 786478, i32 0, metadata !308, metadata !"ap_int_base", metadata !"ap_int_base", metadata !"", metadata !70, i32 1461, metadata !327, i1 false, i1 false, i32 0, i32 0, null, i32 384, i1 false, null, null, i32 0, metadata !82, i32 1461} ; [ DW_TAG_subprogram ]
!327 = metadata !{i32 786453, i32 0, metadata !"", i32 0, i32 0, i64 0, i64 0, i64 0, i32 0, null, metadata !328, i32 0, i32 0} ; [ DW_TAG_subroutine_type ]
!328 = metadata !{null, metadata !325, metadata !88}
!329 = metadata !{i32 786478, i32 0, metadata !308, metadata !"ap_int_base", metadata !"ap_int_base", metadata !"", metadata !70, i32 1462, metadata !330, i1 false, i1 false, i32 0, i32 0, null, i32 384, i1 false, null, null, i32 0, metadata !82, i32 1462} ; [ DW_TAG_subprogram ]
!330 = metadata !{i32 786453, i32 0, metadata !"", i32 0, i32 0, i64 0, i64 0, i64 0, i32 0, null, metadata !331, i32 0, i32 0} ; [ DW_TAG_subroutine_type ]
!331 = metadata !{null, metadata !325, metadata !113}
!332 = metadata !{i32 786478, i32 0, metadata !308, metadata !"ap_int_base", metadata !"ap_int_base", metadata !"", metadata !70, i32 1463, metadata !333, i1 false, i1 false, i32 0, i32 0, null, i32 384, i1 false, null, null, i32 0, metadata !82, i32 1463} ; [ DW_TAG_subprogram ]
!333 = metadata !{i32 786453, i32 0, metadata !"", i32 0, i32 0, i64 0, i64 0, i64 0, i32 0, null, metadata !334, i32 0, i32 0} ; [ DW_TAG_subroutine_type ]
!334 = metadata !{null, metadata !325, metadata !117}
!335 = metadata !{i32 786478, i32 0, metadata !308, metadata !"ap_int_base", metadata !"ap_int_base", metadata !"", metadata !70, i32 1464, metadata !336, i1 false, i1 false, i32 0, i32 0, null, i32 384, i1 false, null, null, i32 0, metadata !82, i32 1464} ; [ DW_TAG_subprogram ]
!336 = metadata !{i32 786453, i32 0, metadata !"", i32 0, i32 0, i64 0, i64 0, i64 0, i32 0, null, metadata !337, i32 0, i32 0} ; [ DW_TAG_subroutine_type ]
!337 = metadata !{null, metadata !325, metadata !121}
!338 = metadata !{i32 786478, i32 0, metadata !308, metadata !"ap_int_base", metadata !"ap_int_base", metadata !"", metadata !70, i32 1465, metadata !339, i1 false, i1 false, i32 0, i32 0, null, i32 384, i1 false, null, null, i32 0, metadata !82, i32 1465} ; [ DW_TAG_subprogram ]
!339 = metadata !{i32 786453, i32 0, metadata !"", i32 0, i32 0, i64 0, i64 0, i64 0, i32 0, null, metadata !340, i32 0, i32 0} ; [ DW_TAG_subroutine_type ]
!340 = metadata !{null, metadata !325, metadata !125}
!341 = metadata !{i32 786478, i32 0, metadata !308, metadata !"ap_int_base", metadata !"ap_int_base", metadata !"", metadata !70, i32 1466, metadata !342, i1 false, i1 false, i32 0, i32 0, null, i32 384, i1 false, null, null, i32 0, metadata !82, i32 1466} ; [ DW_TAG_subprogram ]
!342 = metadata !{i32 786453, i32 0, metadata !"", i32 0, i32 0, i64 0, i64 0, i64 0, i32 0, null, metadata !343, i32 0, i32 0} ; [ DW_TAG_subroutine_type ]
!343 = metadata !{null, metadata !325, metadata !86}
!344 = metadata !{i32 786478, i32 0, metadata !308, metadata !"ap_int_base", metadata !"ap_int_base", metadata !"", metadata !70, i32 1467, metadata !345, i1 false, i1 false, i32 0, i32 0, null, i32 384, i1 false, null, null, i32 0, metadata !82, i32 1467} ; [ DW_TAG_subprogram ]
!345 = metadata !{i32 786453, i32 0, metadata !"", i32 0, i32 0, i64 0, i64 0, i64 0, i32 0, null, metadata !346, i32 0, i32 0} ; [ DW_TAG_subroutine_type ]
!346 = metadata !{null, metadata !325, metadata !132}
!347 = metadata !{i32 786478, i32 0, metadata !308, metadata !"ap_int_base", metadata !"ap_int_base", metadata !"", metadata !70, i32 1468, metadata !348, i1 false, i1 false, i32 0, i32 0, null, i32 384, i1 false, null, null, i32 0, metadata !82, i32 1468} ; [ DW_TAG_subprogram ]
!348 = metadata !{i32 786453, i32 0, metadata !"", i32 0, i32 0, i64 0, i64 0, i64 0, i32 0, null, metadata !349, i32 0, i32 0} ; [ DW_TAG_subroutine_type ]
!349 = metadata !{null, metadata !325, metadata !136}
!350 = metadata !{i32 786478, i32 0, metadata !308, metadata !"ap_int_base", metadata !"ap_int_base", metadata !"", metadata !70, i32 1469, metadata !351, i1 false, i1 false, i32 0, i32 0, null, i32 384, i1 false, null, null, i32 0, metadata !82, i32 1469} ; [ DW_TAG_subprogram ]
!351 = metadata !{i32 786453, i32 0, metadata !"", i32 0, i32 0, i64 0, i64 0, i64 0, i32 0, null, metadata !352, i32 0, i32 0} ; [ DW_TAG_subroutine_type ]
!352 = metadata !{null, metadata !325, metadata !140}
!353 = metadata !{i32 786478, i32 0, metadata !308, metadata !"ap_int_base", metadata !"ap_int_base", metadata !"", metadata !70, i32 1470, metadata !354, i1 false, i1 false, i32 0, i32 0, null, i32 384, i1 false, null, null, i32 0, metadata !82, i32 1470} ; [ DW_TAG_subprogram ]
!354 = metadata !{i32 786453, i32 0, metadata !"", i32 0, i32 0, i64 0, i64 0, i64 0, i32 0, null, metadata !355, i32 0, i32 0} ; [ DW_TAG_subroutine_type ]
!355 = metadata !{null, metadata !325, metadata !144}
!356 = metadata !{i32 786478, i32 0, metadata !308, metadata !"ap_int_base", metadata !"ap_int_base", metadata !"", metadata !70, i32 1471, metadata !357, i1 false, i1 false, i32 0, i32 0, null, i32 384, i1 false, null, null, i32 0, metadata !82, i32 1471} ; [ DW_TAG_subprogram ]
!357 = metadata !{i32 786453, i32 0, metadata !"", i32 0, i32 0, i64 0, i64 0, i64 0, i32 0, null, metadata !358, i32 0, i32 0} ; [ DW_TAG_subroutine_type ]
!358 = metadata !{null, metadata !325, metadata !149}
!359 = metadata !{i32 786478, i32 0, metadata !308, metadata !"ap_int_base", metadata !"ap_int_base", metadata !"", metadata !70, i32 1472, metadata !360, i1 false, i1 false, i32 0, i32 0, null, i32 384, i1 false, null, null, i32 0, metadata !82, i32 1472} ; [ DW_TAG_subprogram ]
!360 = metadata !{i32 786453, i32 0, metadata !"", i32 0, i32 0, i64 0, i64 0, i64 0, i32 0, null, metadata !361, i32 0, i32 0} ; [ DW_TAG_subroutine_type ]
!361 = metadata !{null, metadata !325, metadata !154}
!362 = metadata !{i32 786478, i32 0, metadata !308, metadata !"ap_int_base", metadata !"ap_int_base", metadata !"", metadata !70, i32 1473, metadata !363, i1 false, i1 false, i32 0, i32 0, null, i32 384, i1 false, null, null, i32 0, metadata !82, i32 1473} ; [ DW_TAG_subprogram ]
!363 = metadata !{i32 786453, i32 0, metadata !"", i32 0, i32 0, i64 0, i64 0, i64 0, i32 0, null, metadata !364, i32 0, i32 0} ; [ DW_TAG_subroutine_type ]
!364 = metadata !{null, metadata !325, metadata !159}
!365 = metadata !{i32 786478, i32 0, metadata !308, metadata !"ap_int_base", metadata !"ap_int_base", metadata !"", metadata !70, i32 1474, metadata !366, i1 false, i1 false, i32 0, i32 0, null, i32 384, i1 false, null, null, i32 0, metadata !82, i32 1474} ; [ DW_TAG_subprogram ]
!366 = metadata !{i32 786453, i32 0, metadata !"", i32 0, i32 0, i64 0, i64 0, i64 0, i32 0, null, metadata !367, i32 0, i32 0} ; [ DW_TAG_subroutine_type ]
!367 = metadata !{null, metadata !325, metadata !163}
!368 = metadata !{i32 786478, i32 0, metadata !308, metadata !"ap_int_base", metadata !"ap_int_base", metadata !"", metadata !70, i32 1501, metadata !369, i1 false, i1 false, i32 0, i32 0, null, i32 256, i1 false, null, null, i32 0, metadata !82, i32 1501} ; [ DW_TAG_subprogram ]
!369 = metadata !{i32 786453, i32 0, metadata !"", i32 0, i32 0, i64 0, i64 0, i64 0, i32 0, null, metadata !370, i32 0, i32 0} ; [ DW_TAG_subroutine_type ]
!370 = metadata !{null, metadata !325, metadata !167}
!371 = metadata !{i32 786478, i32 0, metadata !308, metadata !"ap_int_base", metadata !"ap_int_base", metadata !"", metadata !70, i32 1508, metadata !372, i1 false, i1 false, i32 0, i32 0, null, i32 256, i1 false, null, null, i32 0, metadata !82, i32 1508} ; [ DW_TAG_subprogram ]
!372 = metadata !{i32 786453, i32 0, metadata !"", i32 0, i32 0, i64 0, i64 0, i64 0, i32 0, null, metadata !373, i32 0, i32 0} ; [ DW_TAG_subroutine_type ]
!373 = metadata !{null, metadata !325, metadata !167, metadata !113}
!374 = metadata !{i32 786478, i32 0, metadata !308, metadata !"read", metadata !"read", metadata !"_ZNV11ap_int_baseILi9ELb1ELb1EE4readEv", metadata !70, i32 1529, metadata !375, i1 false, i1 false, i32 0, i32 0, null, i32 256, i1 false, null, null, i32 0, metadata !82, i32 1529} ; [ DW_TAG_subprogram ]
!375 = metadata !{i32 786453, i32 0, metadata !"", i32 0, i32 0, i64 0, i64 0, i64 0, i32 0, null, metadata !376, i32 0, i32 0} ; [ DW_TAG_subroutine_type ]
!376 = metadata !{metadata !308, metadata !377}
!377 = metadata !{i32 786447, i32 0, metadata !"", i32 0, i32 0, i64 32, i64 32, i64 0, i32 64, metadata !378} ; [ DW_TAG_pointer_type ]
!378 = metadata !{i32 786485, null, metadata !"", null, i32 0, i64 0, i64 0, i64 0, i32 0, metadata !308} ; [ DW_TAG_volatile_type ]
!379 = metadata !{i32 786478, i32 0, metadata !308, metadata !"write", metadata !"write", metadata !"_ZNV11ap_int_baseILi9ELb1ELb1EE5writeERKS0_", metadata !70, i32 1535, metadata !380, i1 false, i1 false, i32 0, i32 0, null, i32 256, i1 false, null, null, i32 0, metadata !82, i32 1535} ; [ DW_TAG_subprogram ]
!380 = metadata !{i32 786453, i32 0, metadata !"", i32 0, i32 0, i64 0, i64 0, i64 0, i32 0, null, metadata !381, i32 0, i32 0} ; [ DW_TAG_subroutine_type ]
!381 = metadata !{null, metadata !377, metadata !382}
!382 = metadata !{i32 786448, null, null, null, i32 0, i64 0, i64 0, i64 0, i32 0, metadata !383} ; [ DW_TAG_reference_type ]
!383 = metadata !{i32 786470, null, metadata !"", null, i32 0, i64 0, i64 0, i64 0, i32 0, metadata !308} ; [ DW_TAG_const_type ]
!384 = metadata !{i32 786478, i32 0, metadata !308, metadata !"operator=", metadata !"operator=", metadata !"_ZNV11ap_int_baseILi9ELb1ELb1EEaSERVKS0_", metadata !70, i32 1547, metadata !385, i1 false, i1 false, i32 0, i32 0, null, i32 256, i1 false, null, null, i32 0, metadata !82, i32 1547} ; [ DW_TAG_subprogram ]
!385 = metadata !{i32 786453, i32 0, metadata !"", i32 0, i32 0, i64 0, i64 0, i64 0, i32 0, null, metadata !386, i32 0, i32 0} ; [ DW_TAG_subroutine_type ]
!386 = metadata !{null, metadata !377, metadata !387}
!387 = metadata !{i32 786448, null, null, null, i32 0, i64 0, i64 0, i64 0, i32 0, metadata !388} ; [ DW_TAG_reference_type ]
!388 = metadata !{i32 786470, null, metadata !"", null, i32 0, i64 0, i64 0, i64 0, i32 0, metadata !378} ; [ DW_TAG_const_type ]
!389 = metadata !{i32 786478, i32 0, metadata !308, metadata !"operator=", metadata !"operator=", metadata !"_ZNV11ap_int_baseILi9ELb1ELb1EEaSERKS0_", metadata !70, i32 1556, metadata !380, i1 false, i1 false, i32 0, i32 0, null, i32 256, i1 false, null, null, i32 0, metadata !82, i32 1556} ; [ DW_TAG_subprogram ]
!390 = metadata !{i32 786478, i32 0, metadata !308, metadata !"operator=", metadata !"operator=", metadata !"_ZN11ap_int_baseILi9ELb1ELb1EEaSERVKS0_", metadata !70, i32 1579, metadata !391, i1 false, i1 false, i32 0, i32 0, null, i32 256, i1 false, null, null, i32 0, metadata !82, i32 1579} ; [ DW_TAG_subprogram ]
!391 = metadata !{i32 786453, i32 0, metadata !"", i32 0, i32 0, i64 0, i64 0, i64 0, i32 0, null, metadata !392, i32 0, i32 0} ; [ DW_TAG_subroutine_type ]
!392 = metadata !{metadata !393, metadata !325, metadata !387}
!393 = metadata !{i32 786448, null, null, null, i32 0, i64 0, i64 0, i64 0, i32 0, metadata !308} ; [ DW_TAG_reference_type ]
!394 = metadata !{i32 786478, i32 0, metadata !308, metadata !"operator=", metadata !"operator=", metadata !"_ZN11ap_int_baseILi9ELb1ELb1EEaSERKS0_", metadata !70, i32 1584, metadata !395, i1 false, i1 false, i32 0, i32 0, null, i32 256, i1 false, null, null, i32 0, metadata !82, i32 1584} ; [ DW_TAG_subprogram ]
!395 = metadata !{i32 786453, i32 0, metadata !"", i32 0, i32 0, i64 0, i64 0, i64 0, i32 0, null, metadata !396, i32 0, i32 0} ; [ DW_TAG_subroutine_type ]
!396 = metadata !{metadata !393, metadata !325, metadata !382}
!397 = metadata !{i32 786478, i32 0, metadata !308, metadata !"operator=", metadata !"operator=", metadata !"_ZN11ap_int_baseILi9ELb1ELb1EEaSEPKc", metadata !70, i32 1588, metadata !398, i1 false, i1 false, i32 0, i32 0, null, i32 256, i1 false, null, null, i32 0, metadata !82, i32 1588} ; [ DW_TAG_subprogram ]
!398 = metadata !{i32 786453, i32 0, metadata !"", i32 0, i32 0, i64 0, i64 0, i64 0, i32 0, null, metadata !399, i32 0, i32 0} ; [ DW_TAG_subroutine_type ]
!399 = metadata !{metadata !393, metadata !325, metadata !167}
!400 = metadata !{i32 786478, i32 0, metadata !308, metadata !"set", metadata !"set", metadata !"_ZN11ap_int_baseILi9ELb1ELb1EE3setEPKca", metadata !70, i32 1596, metadata !401, i1 false, i1 false, i32 0, i32 0, null, i32 256, i1 false, null, null, i32 0, metadata !82, i32 1596} ; [ DW_TAG_subprogram ]
!401 = metadata !{i32 786453, i32 0, metadata !"", i32 0, i32 0, i64 0, i64 0, i64 0, i32 0, null, metadata !402, i32 0, i32 0} ; [ DW_TAG_subroutine_type ]
!402 = metadata !{metadata !393, metadata !325, metadata !167, metadata !113}
!403 = metadata !{i32 786478, i32 0, metadata !308, metadata !"operator=", metadata !"operator=", metadata !"_ZN11ap_int_baseILi9ELb1ELb1EEaSEa", metadata !70, i32 1610, metadata !404, i1 false, i1 false, i32 0, i32 0, null, i32 256, i1 false, null, null, i32 0, metadata !82, i32 1610} ; [ DW_TAG_subprogram ]
!404 = metadata !{i32 786453, i32 0, metadata !"", i32 0, i32 0, i64 0, i64 0, i64 0, i32 0, null, metadata !405, i32 0, i32 0} ; [ DW_TAG_subroutine_type ]
!405 = metadata !{metadata !393, metadata !325, metadata !113}
!406 = metadata !{i32 786478, i32 0, metadata !308, metadata !"operator=", metadata !"operator=", metadata !"_ZN11ap_int_baseILi9ELb1ELb1EEaSEh", metadata !70, i32 1611, metadata !407, i1 false, i1 false, i32 0, i32 0, null, i32 256, i1 false, null, null, i32 0, metadata !82, i32 1611} ; [ DW_TAG_subprogram ]
!407 = metadata !{i32 786453, i32 0, metadata !"", i32 0, i32 0, i64 0, i64 0, i64 0, i32 0, null, metadata !408, i32 0, i32 0} ; [ DW_TAG_subroutine_type ]
!408 = metadata !{metadata !393, metadata !325, metadata !117}
!409 = metadata !{i32 786478, i32 0, metadata !308, metadata !"operator=", metadata !"operator=", metadata !"_ZN11ap_int_baseILi9ELb1ELb1EEaSEs", metadata !70, i32 1612, metadata !410, i1 false, i1 false, i32 0, i32 0, null, i32 256, i1 false, null, null, i32 0, metadata !82, i32 1612} ; [ DW_TAG_subprogram ]
!410 = metadata !{i32 786453, i32 0, metadata !"", i32 0, i32 0, i64 0, i64 0, i64 0, i32 0, null, metadata !411, i32 0, i32 0} ; [ DW_TAG_subroutine_type ]
!411 = metadata !{metadata !393, metadata !325, metadata !121}
!412 = metadata !{i32 786478, i32 0, metadata !308, metadata !"operator=", metadata !"operator=", metadata !"_ZN11ap_int_baseILi9ELb1ELb1EEaSEt", metadata !70, i32 1613, metadata !413, i1 false, i1 false, i32 0, i32 0, null, i32 256, i1 false, null, null, i32 0, metadata !82, i32 1613} ; [ DW_TAG_subprogram ]
!413 = metadata !{i32 786453, i32 0, metadata !"", i32 0, i32 0, i64 0, i64 0, i64 0, i32 0, null, metadata !414, i32 0, i32 0} ; [ DW_TAG_subroutine_type ]
!414 = metadata !{metadata !393, metadata !325, metadata !125}
!415 = metadata !{i32 786478, i32 0, metadata !308, metadata !"operator=", metadata !"operator=", metadata !"_ZN11ap_int_baseILi9ELb1ELb1EEaSEi", metadata !70, i32 1614, metadata !416, i1 false, i1 false, i32 0, i32 0, null, i32 256, i1 false, null, null, i32 0, metadata !82, i32 1614} ; [ DW_TAG_subprogram ]
!416 = metadata !{i32 786453, i32 0, metadata !"", i32 0, i32 0, i64 0, i64 0, i64 0, i32 0, null, metadata !417, i32 0, i32 0} ; [ DW_TAG_subroutine_type ]
!417 = metadata !{metadata !393, metadata !325, metadata !86}
!418 = metadata !{i32 786478, i32 0, metadata !308, metadata !"operator=", metadata !"operator=", metadata !"_ZN11ap_int_baseILi9ELb1ELb1EEaSEj", metadata !70, i32 1615, metadata !419, i1 false, i1 false, i32 0, i32 0, null, i32 256, i1 false, null, null, i32 0, metadata !82, i32 1615} ; [ DW_TAG_subprogram ]
!419 = metadata !{i32 786453, i32 0, metadata !"", i32 0, i32 0, i64 0, i64 0, i64 0, i32 0, null, metadata !420, i32 0, i32 0} ; [ DW_TAG_subroutine_type ]
!420 = metadata !{metadata !393, metadata !325, metadata !132}
!421 = metadata !{i32 786478, i32 0, metadata !308, metadata !"operator=", metadata !"operator=", metadata !"_ZN11ap_int_baseILi9ELb1ELb1EEaSEx", metadata !70, i32 1616, metadata !422, i1 false, i1 false, i32 0, i32 0, null, i32 256, i1 false, null, null, i32 0, metadata !82, i32 1616} ; [ DW_TAG_subprogram ]
!422 = metadata !{i32 786453, i32 0, metadata !"", i32 0, i32 0, i64 0, i64 0, i64 0, i32 0, null, metadata !423, i32 0, i32 0} ; [ DW_TAG_subroutine_type ]
!423 = metadata !{metadata !393, metadata !325, metadata !144}
!424 = metadata !{i32 786478, i32 0, metadata !308, metadata !"operator=", metadata !"operator=", metadata !"_ZN11ap_int_baseILi9ELb1ELb1EEaSEy", metadata !70, i32 1617, metadata !425, i1 false, i1 false, i32 0, i32 0, null, i32 256, i1 false, null, null, i32 0, metadata !82, i32 1617} ; [ DW_TAG_subprogram ]
!425 = metadata !{i32 786453, i32 0, metadata !"", i32 0, i32 0, i64 0, i64 0, i64 0, i32 0, null, metadata !426, i32 0, i32 0} ; [ DW_TAG_subroutine_type ]
!426 = metadata !{metadata !393, metadata !325, metadata !149}
!427 = metadata !{i32 786478, i32 0, metadata !308, metadata !"operator short", metadata !"operator short", metadata !"_ZNK11ap_int_baseILi9ELb1ELb1EEcvsEv", metadata !70, i32 1655, metadata !428, i1 false, i1 false, i32 0, i32 0, null, i32 256, i1 false, null, null, i32 0, metadata !82, i32 1655} ; [ DW_TAG_subprogram ]
!428 = metadata !{i32 786453, i32 0, metadata !"", i32 0, i32 0, i64 0, i64 0, i64 0, i32 0, null, metadata !429, i32 0, i32 0} ; [ DW_TAG_subroutine_type ]
!429 = metadata !{metadata !430, metadata !435}
!430 = metadata !{i32 786454, metadata !308, metadata !"RetType", metadata !70, i32 1403, i64 0, i64 0, i64 0, i32 0, metadata !431} ; [ DW_TAG_typedef ]
!431 = metadata !{i32 786454, metadata !432, metadata !"Type", metadata !70, i32 1374, i64 0, i64 0, i64 0, i32 0, metadata !121} ; [ DW_TAG_typedef ]
!432 = metadata !{i32 786434, null, metadata !"retval<2, true>", metadata !70, i32 1373, i64 8, i64 8, i32 0, i32 0, null, metadata !227, i32 0, null, metadata !433} ; [ DW_TAG_class_type ]
!433 = metadata !{metadata !434, metadata !321}
!434 = metadata !{i32 786480, null, metadata !"_AP_N", metadata !86, i64 2, null, i32 0, i32 0} ; [ DW_TAG_template_value_parameter ]
!435 = metadata !{i32 786447, i32 0, metadata !"", i32 0, i32 0, i64 32, i64 32, i64 0, i32 64, metadata !383} ; [ DW_TAG_pointer_type ]
!436 = metadata !{i32 786478, i32 0, metadata !308, metadata !"to_bool", metadata !"to_bool", metadata !"_ZNK11ap_int_baseILi9ELb1ELb1EE7to_boolEv", metadata !70, i32 1661, metadata !437, i1 false, i1 false, i32 0, i32 0, null, i32 256, i1 false, null, null, i32 0, metadata !82, i32 1661} ; [ DW_TAG_subprogram ]
!437 = metadata !{i32 786453, i32 0, metadata !"", i32 0, i32 0, i64 0, i64 0, i64 0, i32 0, null, metadata !438, i32 0, i32 0} ; [ DW_TAG_subroutine_type ]
!438 = metadata !{metadata !88, metadata !435}
!439 = metadata !{i32 786478, i32 0, metadata !308, metadata !"to_uchar", metadata !"to_uchar", metadata !"_ZNK11ap_int_baseILi9ELb1ELb1EE8to_ucharEv", metadata !70, i32 1662, metadata !440, i1 false, i1 false, i32 0, i32 0, null, i32 256, i1 false, null, null, i32 0, metadata !82, i32 1662} ; [ DW_TAG_subprogram ]
!440 = metadata !{i32 786453, i32 0, metadata !"", i32 0, i32 0, i64 0, i64 0, i64 0, i32 0, null, metadata !441, i32 0, i32 0} ; [ DW_TAG_subroutine_type ]
!441 = metadata !{metadata !117, metadata !435}
!442 = metadata !{i32 786478, i32 0, metadata !308, metadata !"to_char", metadata !"to_char", metadata !"_ZNK11ap_int_baseILi9ELb1ELb1EE7to_charEv", metadata !70, i32 1663, metadata !443, i1 false, i1 false, i32 0, i32 0, null, i32 256, i1 false, null, null, i32 0, metadata !82, i32 1663} ; [ DW_TAG_subprogram ]
!443 = metadata !{i32 786453, i32 0, metadata !"", i32 0, i32 0, i64 0, i64 0, i64 0, i32 0, null, metadata !444, i32 0, i32 0} ; [ DW_TAG_subroutine_type ]
!444 = metadata !{metadata !113, metadata !435}
!445 = metadata !{i32 786478, i32 0, metadata !308, metadata !"to_ushort", metadata !"to_ushort", metadata !"_ZNK11ap_int_baseILi9ELb1ELb1EE9to_ushortEv", metadata !70, i32 1664, metadata !446, i1 false, i1 false, i32 0, i32 0, null, i32 256, i1 false, null, null, i32 0, metadata !82, i32 1664} ; [ DW_TAG_subprogram ]
!446 = metadata !{i32 786453, i32 0, metadata !"", i32 0, i32 0, i64 0, i64 0, i64 0, i32 0, null, metadata !447, i32 0, i32 0} ; [ DW_TAG_subroutine_type ]
!447 = metadata !{metadata !125, metadata !435}
!448 = metadata !{i32 786478, i32 0, metadata !308, metadata !"to_short", metadata !"to_short", metadata !"_ZNK11ap_int_baseILi9ELb1ELb1EE8to_shortEv", metadata !70, i32 1665, metadata !449, i1 false, i1 false, i32 0, i32 0, null, i32 256, i1 false, null, null, i32 0, metadata !82, i32 1665} ; [ DW_TAG_subprogram ]
!449 = metadata !{i32 786453, i32 0, metadata !"", i32 0, i32 0, i64 0, i64 0, i64 0, i32 0, null, metadata !450, i32 0, i32 0} ; [ DW_TAG_subroutine_type ]
!450 = metadata !{metadata !121, metadata !435}
!451 = metadata !{i32 786478, i32 0, metadata !308, metadata !"to_int", metadata !"to_int", metadata !"_ZNK11ap_int_baseILi9ELb1ELb1EE6to_intEv", metadata !70, i32 1666, metadata !452, i1 false, i1 false, i32 0, i32 0, null, i32 256, i1 false, null, null, i32 0, metadata !82, i32 1666} ; [ DW_TAG_subprogram ]
!452 = metadata !{i32 786453, i32 0, metadata !"", i32 0, i32 0, i64 0, i64 0, i64 0, i32 0, null, metadata !453, i32 0, i32 0} ; [ DW_TAG_subroutine_type ]
!453 = metadata !{metadata !86, metadata !435}
!454 = metadata !{i32 786478, i32 0, metadata !308, metadata !"to_uint", metadata !"to_uint", metadata !"_ZNK11ap_int_baseILi9ELb1ELb1EE7to_uintEv", metadata !70, i32 1667, metadata !455, i1 false, i1 false, i32 0, i32 0, null, i32 256, i1 false, null, null, i32 0, metadata !82, i32 1667} ; [ DW_TAG_subprogram ]
!455 = metadata !{i32 786453, i32 0, metadata !"", i32 0, i32 0, i64 0, i64 0, i64 0, i32 0, null, metadata !456, i32 0, i32 0} ; [ DW_TAG_subroutine_type ]
!456 = metadata !{metadata !132, metadata !435}
!457 = metadata !{i32 786478, i32 0, metadata !308, metadata !"to_long", metadata !"to_long", metadata !"_ZNK11ap_int_baseILi9ELb1ELb1EE7to_longEv", metadata !70, i32 1668, metadata !458, i1 false, i1 false, i32 0, i32 0, null, i32 256, i1 false, null, null, i32 0, metadata !82, i32 1668} ; [ DW_TAG_subprogram ]
!458 = metadata !{i32 786453, i32 0, metadata !"", i32 0, i32 0, i64 0, i64 0, i64 0, i32 0, null, metadata !459, i32 0, i32 0} ; [ DW_TAG_subroutine_type ]
!459 = metadata !{metadata !136, metadata !435}
!460 = metadata !{i32 786478, i32 0, metadata !308, metadata !"to_ulong", metadata !"to_ulong", metadata !"_ZNK11ap_int_baseILi9ELb1ELb1EE8to_ulongEv", metadata !70, i32 1669, metadata !461, i1 false, i1 false, i32 0, i32 0, null, i32 256, i1 false, null, null, i32 0, metadata !82, i32 1669} ; [ DW_TAG_subprogram ]
!461 = metadata !{i32 786453, i32 0, metadata !"", i32 0, i32 0, i64 0, i64 0, i64 0, i32 0, null, metadata !462, i32 0, i32 0} ; [ DW_TAG_subroutine_type ]
!462 = metadata !{metadata !140, metadata !435}
!463 = metadata !{i32 786478, i32 0, metadata !308, metadata !"to_int64", metadata !"to_int64", metadata !"_ZNK11ap_int_baseILi9ELb1ELb1EE8to_int64Ev", metadata !70, i32 1670, metadata !464, i1 false, i1 false, i32 0, i32 0, null, i32 256, i1 false, null, null, i32 0, metadata !82, i32 1670} ; [ DW_TAG_subprogram ]
!464 = metadata !{i32 786453, i32 0, metadata !"", i32 0, i32 0, i64 0, i64 0, i64 0, i32 0, null, metadata !465, i32 0, i32 0} ; [ DW_TAG_subroutine_type ]
!465 = metadata !{metadata !144, metadata !435}
!466 = metadata !{i32 786478, i32 0, metadata !308, metadata !"to_uint64", metadata !"to_uint64", metadata !"_ZNK11ap_int_baseILi9ELb1ELb1EE9to_uint64Ev", metadata !70, i32 1671, metadata !467, i1 false, i1 false, i32 0, i32 0, null, i32 256, i1 false, null, null, i32 0, metadata !82, i32 1671} ; [ DW_TAG_subprogram ]
!467 = metadata !{i32 786453, i32 0, metadata !"", i32 0, i32 0, i64 0, i64 0, i64 0, i32 0, null, metadata !468, i32 0, i32 0} ; [ DW_TAG_subroutine_type ]
!468 = metadata !{metadata !149, metadata !435}
!469 = metadata !{i32 786478, i32 0, metadata !308, metadata !"to_double", metadata !"to_double", metadata !"_ZNK11ap_int_baseILi9ELb1ELb1EE9to_doubleEv", metadata !70, i32 1672, metadata !470, i1 false, i1 false, i32 0, i32 0, null, i32 256, i1 false, null, null, i32 0, metadata !82, i32 1672} ; [ DW_TAG_subprogram ]
!470 = metadata !{i32 786453, i32 0, metadata !"", i32 0, i32 0, i64 0, i64 0, i64 0, i32 0, null, metadata !471, i32 0, i32 0} ; [ DW_TAG_subroutine_type ]
!471 = metadata !{metadata !163, metadata !435}
!472 = metadata !{i32 786478, i32 0, metadata !308, metadata !"length", metadata !"length", metadata !"_ZNK11ap_int_baseILi9ELb1ELb1EE6lengthEv", metadata !70, i32 1686, metadata !452, i1 false, i1 false, i32 0, i32 0, null, i32 256, i1 false, null, null, i32 0, metadata !82, i32 1686} ; [ DW_TAG_subprogram ]
!473 = metadata !{i32 786478, i32 0, metadata !308, metadata !"length", metadata !"length", metadata !"_ZNVK11ap_int_baseILi9ELb1ELb1EE6lengthEv", metadata !70, i32 1687, metadata !474, i1 false, i1 false, i32 0, i32 0, null, i32 256, i1 false, null, null, i32 0, metadata !82, i32 1687} ; [ DW_TAG_subprogram ]
!474 = metadata !{i32 786453, i32 0, metadata !"", i32 0, i32 0, i64 0, i64 0, i64 0, i32 0, null, metadata !475, i32 0, i32 0} ; [ DW_TAG_subroutine_type ]
!475 = metadata !{metadata !86, metadata !476}
!476 = metadata !{i32 786447, i32 0, metadata !"", i32 0, i32 0, i64 32, i64 32, i64 0, i32 64, metadata !388} ; [ DW_TAG_pointer_type ]
!477 = metadata !{i32 786478, i32 0, metadata !308, metadata !"reverse", metadata !"reverse", metadata !"_ZN11ap_int_baseILi9ELb1ELb1EE7reverseEv", metadata !70, i32 1692, metadata !478, i1 false, i1 false, i32 0, i32 0, null, i32 256, i1 false, null, null, i32 0, metadata !82, i32 1692} ; [ DW_TAG_subprogram ]
!478 = metadata !{i32 786453, i32 0, metadata !"", i32 0, i32 0, i64 0, i64 0, i64 0, i32 0, null, metadata !479, i32 0, i32 0} ; [ DW_TAG_subroutine_type ]
!479 = metadata !{metadata !393, metadata !325}
!480 = metadata !{i32 786478, i32 0, metadata !308, metadata !"iszero", metadata !"iszero", metadata !"_ZNK11ap_int_baseILi9ELb1ELb1EE6iszeroEv", metadata !70, i32 1698, metadata !437, i1 false, i1 false, i32 0, i32 0, null, i32 256, i1 false, null, null, i32 0, metadata !82, i32 1698} ; [ DW_TAG_subprogram ]
!481 = metadata !{i32 786478, i32 0, metadata !308, metadata !"is_zero", metadata !"is_zero", metadata !"_ZNK11ap_int_baseILi9ELb1ELb1EE7is_zeroEv", metadata !70, i32 1703, metadata !437, i1 false, i1 false, i32 0, i32 0, null, i32 256, i1 false, null, null, i32 0, metadata !82, i32 1703} ; [ DW_TAG_subprogram ]
!482 = metadata !{i32 786478, i32 0, metadata !308, metadata !"sign", metadata !"sign", metadata !"_ZNK11ap_int_baseILi9ELb1ELb1EE4signEv", metadata !70, i32 1708, metadata !437, i1 false, i1 false, i32 0, i32 0, null, i32 256, i1 false, null, null, i32 0, metadata !82, i32 1708} ; [ DW_TAG_subprogram ]
!483 = metadata !{i32 786478, i32 0, metadata !308, metadata !"clear", metadata !"clear", metadata !"_ZN11ap_int_baseILi9ELb1ELb1EE5clearEi", metadata !70, i32 1716, metadata !342, i1 false, i1 false, i32 0, i32 0, null, i32 256, i1 false, null, null, i32 0, metadata !82, i32 1716} ; [ DW_TAG_subprogram ]
!484 = metadata !{i32 786478, i32 0, metadata !308, metadata !"invert", metadata !"invert", metadata !"_ZN11ap_int_baseILi9ELb1ELb1EE6invertEi", metadata !70, i32 1722, metadata !342, i1 false, i1 false, i32 0, i32 0, null, i32 256, i1 false, null, null, i32 0, metadata !82, i32 1722} ; [ DW_TAG_subprogram ]
!485 = metadata !{i32 786478, i32 0, metadata !308, metadata !"test", metadata !"test", metadata !"_ZNK11ap_int_baseILi9ELb1ELb1EE4testEi", metadata !70, i32 1730, metadata !486, i1 false, i1 false, i32 0, i32 0, null, i32 256, i1 false, null, null, i32 0, metadata !82, i32 1730} ; [ DW_TAG_subprogram ]
!486 = metadata !{i32 786453, i32 0, metadata !"", i32 0, i32 0, i64 0, i64 0, i64 0, i32 0, null, metadata !487, i32 0, i32 0} ; [ DW_TAG_subroutine_type ]
!487 = metadata !{metadata !88, metadata !435, metadata !86}
!488 = metadata !{i32 786478, i32 0, metadata !308, metadata !"set", metadata !"set", metadata !"_ZN11ap_int_baseILi9ELb1ELb1EE3setEi", metadata !70, i32 1736, metadata !342, i1 false, i1 false, i32 0, i32 0, null, i32 256, i1 false, null, null, i32 0, metadata !82, i32 1736} ; [ DW_TAG_subprogram ]
!489 = metadata !{i32 786478, i32 0, metadata !308, metadata !"set", metadata !"set", metadata !"_ZN11ap_int_baseILi9ELb1ELb1EE3setEib", metadata !70, i32 1742, metadata !490, i1 false, i1 false, i32 0, i32 0, null, i32 256, i1 false, null, null, i32 0, metadata !82, i32 1742} ; [ DW_TAG_subprogram ]
!490 = metadata !{i32 786453, i32 0, metadata !"", i32 0, i32 0, i64 0, i64 0, i64 0, i32 0, null, metadata !491, i32 0, i32 0} ; [ DW_TAG_subroutine_type ]
!491 = metadata !{null, metadata !325, metadata !86, metadata !88}
!492 = metadata !{i32 786478, i32 0, metadata !308, metadata !"lrotate", metadata !"lrotate", metadata !"_ZN11ap_int_baseILi9ELb1ELb1EE7lrotateEi", metadata !70, i32 1749, metadata !342, i1 false, i1 false, i32 0, i32 0, null, i32 256, i1 false, null, null, i32 0, metadata !82, i32 1749} ; [ DW_TAG_subprogram ]
!493 = metadata !{i32 786478, i32 0, metadata !308, metadata !"rrotate", metadata !"rrotate", metadata !"_ZN11ap_int_baseILi9ELb1ELb1EE7rrotateEi", metadata !70, i32 1758, metadata !342, i1 false, i1 false, i32 0, i32 0, null, i32 256, i1 false, null, null, i32 0, metadata !82, i32 1758} ; [ DW_TAG_subprogram ]
!494 = metadata !{i32 786478, i32 0, metadata !308, metadata !"set_bit", metadata !"set_bit", metadata !"_ZN11ap_int_baseILi9ELb1ELb1EE7set_bitEib", metadata !70, i32 1766, metadata !490, i1 false, i1 false, i32 0, i32 0, null, i32 256, i1 false, null, null, i32 0, metadata !82, i32 1766} ; [ DW_TAG_subprogram ]
!495 = metadata !{i32 786478, i32 0, metadata !308, metadata !"get_bit", metadata !"get_bit", metadata !"_ZNK11ap_int_baseILi9ELb1ELb1EE7get_bitEi", metadata !70, i32 1771, metadata !486, i1 false, i1 false, i32 0, i32 0, null, i32 256, i1 false, null, null, i32 0, metadata !82, i32 1771} ; [ DW_TAG_subprogram ]
!496 = metadata !{i32 786478, i32 0, metadata !308, metadata !"b_not", metadata !"b_not", metadata !"_ZN11ap_int_baseILi9ELb1ELb1EE5b_notEv", metadata !70, i32 1776, metadata !323, i1 false, i1 false, i32 0, i32 0, null, i32 256, i1 false, null, null, i32 0, metadata !82, i32 1776} ; [ DW_TAG_subprogram ]
!497 = metadata !{i32 786478, i32 0, metadata !308, metadata !"countLeadingZeros", metadata !"countLeadingZeros", metadata !"_ZN11ap_int_baseILi9ELb1ELb1EE17countLeadingZerosEv", metadata !70, i32 1783, metadata !498, i1 false, i1 false, i32 0, i32 0, null, i32 256, i1 false, null, null, i32 0, metadata !82, i32 1783} ; [ DW_TAG_subprogram ]
!498 = metadata !{i32 786453, i32 0, metadata !"", i32 0, i32 0, i64 0, i64 0, i64 0, i32 0, null, metadata !499, i32 0, i32 0} ; [ DW_TAG_subroutine_type ]
!499 = metadata !{metadata !86, metadata !325}
!500 = metadata !{i32 786478, i32 0, metadata !308, metadata !"operator++", metadata !"operator++", metadata !"_ZN11ap_int_baseILi9ELb1ELb1EEppEv", metadata !70, i32 1840, metadata !478, i1 false, i1 false, i32 0, i32 0, null, i32 256, i1 false, null, null, i32 0, metadata !82, i32 1840} ; [ DW_TAG_subprogram ]
!501 = metadata !{i32 786478, i32 0, metadata !308, metadata !"operator--", metadata !"operator--", metadata !"_ZN11ap_int_baseILi9ELb1ELb1EEmmEv", metadata !70, i32 1844, metadata !478, i1 false, i1 false, i32 0, i32 0, null, i32 256, i1 false, null, null, i32 0, metadata !82, i32 1844} ; [ DW_TAG_subprogram ]
!502 = metadata !{i32 786478, i32 0, metadata !308, metadata !"operator++", metadata !"operator++", metadata !"_ZN11ap_int_baseILi9ELb1ELb1EEppEi", metadata !70, i32 1852, metadata !503, i1 false, i1 false, i32 0, i32 0, null, i32 256, i1 false, null, null, i32 0, metadata !82, i32 1852} ; [ DW_TAG_subprogram ]
!503 = metadata !{i32 786453, i32 0, metadata !"", i32 0, i32 0, i64 0, i64 0, i64 0, i32 0, null, metadata !504, i32 0, i32 0} ; [ DW_TAG_subroutine_type ]
!504 = metadata !{metadata !383, metadata !325, metadata !86}
!505 = metadata !{i32 786478, i32 0, metadata !308, metadata !"operator--", metadata !"operator--", metadata !"_ZN11ap_int_baseILi9ELb1ELb1EEmmEi", metadata !70, i32 1857, metadata !503, i1 false, i1 false, i32 0, i32 0, null, i32 256, i1 false, null, null, i32 0, metadata !82, i32 1857} ; [ DW_TAG_subprogram ]
!506 = metadata !{i32 786478, i32 0, metadata !308, metadata !"operator+", metadata !"operator+", metadata !"_ZNK11ap_int_baseILi9ELb1ELb1EEpsEv", metadata !70, i32 1866, metadata !507, i1 false, i1 false, i32 0, i32 0, null, i32 256, i1 false, null, null, i32 0, metadata !82, i32 1866} ; [ DW_TAG_subprogram ]
!507 = metadata !{i32 786453, i32 0, metadata !"", i32 0, i32 0, i64 0, i64 0, i64 0, i32 0, null, metadata !508, i32 0, i32 0} ; [ DW_TAG_subroutine_type ]
!508 = metadata !{metadata !308, metadata !435}
!509 = metadata !{i32 786478, i32 0, metadata !308, metadata !"operator!", metadata !"operator!", metadata !"_ZNK11ap_int_baseILi9ELb1ELb1EEntEv", metadata !70, i32 1872, metadata !437, i1 false, i1 false, i32 0, i32 0, null, i32 256, i1 false, null, null, i32 0, metadata !82, i32 1872} ; [ DW_TAG_subprogram ]
!510 = metadata !{i32 786478, i32 0, metadata !308, metadata !"operator-", metadata !"operator-", metadata !"_ZNK11ap_int_baseILi9ELb1ELb1EEngEv", metadata !70, i32 1877, metadata !511, i1 false, i1 false, i32 0, i32 0, null, i32 256, i1 false, null, null, i32 0, metadata !82, i32 1877} ; [ DW_TAG_subprogram ]
!511 = metadata !{i32 786453, i32 0, metadata !"", i32 0, i32 0, i64 0, i64 0, i64 0, i32 0, null, metadata !512, i32 0, i32 0} ; [ DW_TAG_subroutine_type ]
!512 = metadata !{metadata !513, metadata !435}
!513 = metadata !{i32 786434, null, metadata !"ap_int_base<10, true, true>", metadata !70, i32 651, i32 0, i32 0, i32 0, i32 4, null, null, i32 0} ; [ DW_TAG_class_type ]
!514 = metadata !{i32 786478, i32 0, metadata !308, metadata !"range", metadata !"range", metadata !"_ZN11ap_int_baseILi9ELb1ELb1EE5rangeEii", metadata !70, i32 2007, metadata !515, i1 false, i1 false, i32 0, i32 0, null, i32 256, i1 false, null, null, i32 0, metadata !82, i32 2007} ; [ DW_TAG_subprogram ]
!515 = metadata !{i32 786453, i32 0, metadata !"", i32 0, i32 0, i64 0, i64 0, i64 0, i32 0, null, metadata !516, i32 0, i32 0} ; [ DW_TAG_subroutine_type ]
!516 = metadata !{metadata !517, metadata !325, metadata !86, metadata !86}
!517 = metadata !{i32 786434, null, metadata !"ap_range_ref<9, true>", metadata !70, i32 924, i32 0, i32 0, i32 0, i32 4, null, null, i32 0} ; [ DW_TAG_class_type ]
!518 = metadata !{i32 786478, i32 0, metadata !308, metadata !"operator()", metadata !"operator()", metadata !"_ZN11ap_int_baseILi9ELb1ELb1EEclEii", metadata !70, i32 2013, metadata !515, i1 false, i1 false, i32 0, i32 0, null, i32 256, i1 false, null, null, i32 0, metadata !82, i32 2013} ; [ DW_TAG_subprogram ]
!519 = metadata !{i32 786478, i32 0, metadata !308, metadata !"range", metadata !"range", metadata !"_ZNK11ap_int_baseILi9ELb1ELb1EE5rangeEii", metadata !70, i32 2019, metadata !520, i1 false, i1 false, i32 0, i32 0, null, i32 256, i1 false, null, null, i32 0, metadata !82, i32 2019} ; [ DW_TAG_subprogram ]
!520 = metadata !{i32 786453, i32 0, metadata !"", i32 0, i32 0, i64 0, i64 0, i64 0, i32 0, null, metadata !521, i32 0, i32 0} ; [ DW_TAG_subroutine_type ]
!521 = metadata !{metadata !517, metadata !435, metadata !86, metadata !86}
!522 = metadata !{i32 786478, i32 0, metadata !308, metadata !"operator()", metadata !"operator()", metadata !"_ZNK11ap_int_baseILi9ELb1ELb1EEclEii", metadata !70, i32 2025, metadata !520, i1 false, i1 false, i32 0, i32 0, null, i32 256, i1 false, null, null, i32 0, metadata !82, i32 2025} ; [ DW_TAG_subprogram ]
!523 = metadata !{i32 786478, i32 0, metadata !308, metadata !"operator[]", metadata !"operator[]", metadata !"_ZN11ap_int_baseILi9ELb1ELb1EEixEi", metadata !70, i32 2044, metadata !524, i1 false, i1 false, i32 0, i32 0, null, i32 256, i1 false, null, null, i32 0, metadata !82, i32 2044} ; [ DW_TAG_subprogram ]
!524 = metadata !{i32 786453, i32 0, metadata !"", i32 0, i32 0, i64 0, i64 0, i64 0, i32 0, null, metadata !525, i32 0, i32 0} ; [ DW_TAG_subroutine_type ]
!525 = metadata !{metadata !526, metadata !325, metadata !86}
!526 = metadata !{i32 786434, null, metadata !"ap_bit_ref<9, true>", metadata !70, i32 1194, i64 64, i64 32, i32 0, i32 0, null, metadata !527, i32 0, null, metadata !560} ; [ DW_TAG_class_type ]
!527 = metadata !{metadata !528, metadata !529, metadata !530, metadata !536, metadata !540, metadata !544, metadata !545, metadata !549, metadata !552, metadata !553, metadata !556, metadata !557}
!528 = metadata !{i32 786445, metadata !526, metadata !"d_bv", metadata !70, i32 1195, i64 32, i64 32, i64 0, i32 0, metadata !393} ; [ DW_TAG_member ]
!529 = metadata !{i32 786445, metadata !526, metadata !"d_index", metadata !70, i32 1196, i64 32, i64 32, i64 32, i32 0, metadata !86} ; [ DW_TAG_member ]
!530 = metadata !{i32 786478, i32 0, metadata !526, metadata !"ap_bit_ref", metadata !"ap_bit_ref", metadata !"", metadata !70, i32 1199, metadata !531, i1 false, i1 false, i32 0, i32 0, null, i32 256, i1 false, null, null, i32 0, metadata !82, i32 1199} ; [ DW_TAG_subprogram ]
!531 = metadata !{i32 786453, i32 0, metadata !"", i32 0, i32 0, i64 0, i64 0, i64 0, i32 0, null, metadata !532, i32 0, i32 0} ; [ DW_TAG_subroutine_type ]
!532 = metadata !{null, metadata !533, metadata !534}
!533 = metadata !{i32 786447, i32 0, metadata !"", i32 0, i32 0, i64 32, i64 32, i64 0, i32 64, metadata !526} ; [ DW_TAG_pointer_type ]
!534 = metadata !{i32 786448, null, null, null, i32 0, i64 0, i64 0, i64 0, i32 0, metadata !535} ; [ DW_TAG_reference_type ]
!535 = metadata !{i32 786470, null, metadata !"", null, i32 0, i64 0, i64 0, i64 0, i32 0, metadata !526} ; [ DW_TAG_const_type ]
!536 = metadata !{i32 786478, i32 0, metadata !526, metadata !"ap_bit_ref", metadata !"ap_bit_ref", metadata !"", metadata !70, i32 1202, metadata !537, i1 false, i1 false, i32 0, i32 0, null, i32 256, i1 false, null, null, i32 0, metadata !82, i32 1202} ; [ DW_TAG_subprogram ]
!537 = metadata !{i32 786453, i32 0, metadata !"", i32 0, i32 0, i64 0, i64 0, i64 0, i32 0, null, metadata !538, i32 0, i32 0} ; [ DW_TAG_subroutine_type ]
!538 = metadata !{null, metadata !533, metadata !539, metadata !86}
!539 = metadata !{i32 786447, null, metadata !"", null, i32 0, i64 32, i64 32, i64 0, i32 0, metadata !308} ; [ DW_TAG_pointer_type ]
!540 = metadata !{i32 786478, i32 0, metadata !526, metadata !"operator _Bool", metadata !"operator _Bool", metadata !"_ZNK10ap_bit_refILi9ELb1EEcvbEv", metadata !70, i32 1204, metadata !541, i1 false, i1 false, i32 0, i32 0, null, i32 256, i1 false, null, null, i32 0, metadata !82, i32 1204} ; [ DW_TAG_subprogram ]
!541 = metadata !{i32 786453, i32 0, metadata !"", i32 0, i32 0, i64 0, i64 0, i64 0, i32 0, null, metadata !542, i32 0, i32 0} ; [ DW_TAG_subroutine_type ]
!542 = metadata !{metadata !88, metadata !543}
!543 = metadata !{i32 786447, i32 0, metadata !"", i32 0, i32 0, i64 32, i64 32, i64 0, i32 64, metadata !535} ; [ DW_TAG_pointer_type ]
!544 = metadata !{i32 786478, i32 0, metadata !526, metadata !"to_bool", metadata !"to_bool", metadata !"_ZNK10ap_bit_refILi9ELb1EE7to_boolEv", metadata !70, i32 1205, metadata !541, i1 false, i1 false, i32 0, i32 0, null, i32 256, i1 false, null, null, i32 0, metadata !82, i32 1205} ; [ DW_TAG_subprogram ]
!545 = metadata !{i32 786478, i32 0, metadata !526, metadata !"operator=", metadata !"operator=", metadata !"_ZN10ap_bit_refILi9ELb1EEaSEy", metadata !70, i32 1207, metadata !546, i1 false, i1 false, i32 0, i32 0, null, i32 256, i1 false, null, null, i32 0, metadata !82, i32 1207} ; [ DW_TAG_subprogram ]
!546 = metadata !{i32 786453, i32 0, metadata !"", i32 0, i32 0, i64 0, i64 0, i64 0, i32 0, null, metadata !547, i32 0, i32 0} ; [ DW_TAG_subroutine_type ]
!547 = metadata !{metadata !548, metadata !533, metadata !150}
!548 = metadata !{i32 786448, null, null, null, i32 0, i64 0, i64 0, i64 0, i32 0, metadata !526} ; [ DW_TAG_reference_type ]
!549 = metadata !{i32 786478, i32 0, metadata !526, metadata !"operator=", metadata !"operator=", metadata !"_ZN10ap_bit_refILi9ELb1EEaSERKS0_", metadata !70, i32 1227, metadata !550, i1 false, i1 false, i32 0, i32 0, null, i32 256, i1 false, null, null, i32 0, metadata !82, i32 1227} ; [ DW_TAG_subprogram ]
!550 = metadata !{i32 786453, i32 0, metadata !"", i32 0, i32 0, i64 0, i64 0, i64 0, i32 0, null, metadata !551, i32 0, i32 0} ; [ DW_TAG_subroutine_type ]
!551 = metadata !{metadata !548, metadata !533, metadata !534}
!552 = metadata !{i32 786478, i32 0, metadata !526, metadata !"get", metadata !"get", metadata !"_ZNK10ap_bit_refILi9ELb1EE3getEv", metadata !70, i32 1335, metadata !541, i1 false, i1 false, i32 0, i32 0, null, i32 256, i1 false, null, null, i32 0, metadata !82, i32 1335} ; [ DW_TAG_subprogram ]
!553 = metadata !{i32 786478, i32 0, metadata !526, metadata !"get", metadata !"get", metadata !"_ZN10ap_bit_refILi9ELb1EE3getEv", metadata !70, i32 1339, metadata !554, i1 false, i1 false, i32 0, i32 0, null, i32 256, i1 false, null, null, i32 0, metadata !82, i32 1339} ; [ DW_TAG_subprogram ]
!554 = metadata !{i32 786453, i32 0, metadata !"", i32 0, i32 0, i64 0, i64 0, i64 0, i32 0, null, metadata !555, i32 0, i32 0} ; [ DW_TAG_subroutine_type ]
!555 = metadata !{metadata !88, metadata !533}
!556 = metadata !{i32 786478, i32 0, metadata !526, metadata !"operator~", metadata !"operator~", metadata !"_ZNK10ap_bit_refILi9ELb1EEcoEv", metadata !70, i32 1348, metadata !541, i1 false, i1 false, i32 0, i32 0, null, i32 256, i1 false, null, null, i32 0, metadata !82, i32 1348} ; [ DW_TAG_subprogram ]
!557 = metadata !{i32 786478, i32 0, metadata !526, metadata !"length", metadata !"length", metadata !"_ZNK10ap_bit_refILi9ELb1EE6lengthEv", metadata !70, i32 1353, metadata !558, i1 false, i1 false, i32 0, i32 0, null, i32 256, i1 false, null, null, i32 0, metadata !82, i32 1353} ; [ DW_TAG_subprogram ]
!558 = metadata !{i32 786453, i32 0, metadata !"", i32 0, i32 0, i64 0, i64 0, i64 0, i32 0, null, metadata !559, i32 0, i32 0} ; [ DW_TAG_subroutine_type ]
!559 = metadata !{metadata !86, metadata !543}
!560 = metadata !{metadata !561, metadata !321}
!561 = metadata !{i32 786480, null, metadata !"_AP_W", metadata !86, i64 9, null, i32 0, i32 0} ; [ DW_TAG_template_value_parameter ]
!562 = metadata !{i32 786478, i32 0, metadata !308, metadata !"operator[]", metadata !"operator[]", metadata !"_ZNK11ap_int_baseILi9ELb1ELb1EEixEi", metadata !70, i32 2058, metadata !486, i1 false, i1 false, i32 0, i32 0, null, i32 256, i1 false, null, null, i32 0, metadata !82, i32 2058} ; [ DW_TAG_subprogram ]
!563 = metadata !{i32 786478, i32 0, metadata !308, metadata !"bit", metadata !"bit", metadata !"_ZN11ap_int_baseILi9ELb1ELb1EE3bitEi", metadata !70, i32 2072, metadata !524, i1 false, i1 false, i32 0, i32 0, null, i32 256, i1 false, null, null, i32 0, metadata !82, i32 2072} ; [ DW_TAG_subprogram ]
!564 = metadata !{i32 786478, i32 0, metadata !308, metadata !"bit", metadata !"bit", metadata !"_ZNK11ap_int_baseILi9ELb1ELb1EE3bitEi", metadata !70, i32 2086, metadata !486, i1 false, i1 false, i32 0, i32 0, null, i32 256, i1 false, null, null, i32 0, metadata !82, i32 2086} ; [ DW_TAG_subprogram ]
!565 = metadata !{i32 786478, i32 0, metadata !308, metadata !"and_reduce", metadata !"and_reduce", metadata !"_ZN11ap_int_baseILi9ELb1ELb1EE10and_reduceEv", metadata !70, i32 2266, metadata !566, i1 false, i1 false, i32 0, i32 0, null, i32 256, i1 false, null, null, i32 0, metadata !82, i32 2266} ; [ DW_TAG_subprogram ]
!566 = metadata !{i32 786453, i32 0, metadata !"", i32 0, i32 0, i64 0, i64 0, i64 0, i32 0, null, metadata !567, i32 0, i32 0} ; [ DW_TAG_subroutine_type ]
!567 = metadata !{metadata !88, metadata !325}
!568 = metadata !{i32 786478, i32 0, metadata !308, metadata !"nand_reduce", metadata !"nand_reduce", metadata !"_ZN11ap_int_baseILi9ELb1ELb1EE11nand_reduceEv", metadata !70, i32 2269, metadata !566, i1 false, i1 false, i32 0, i32 0, null, i32 256, i1 false, null, null, i32 0, metadata !82, i32 2269} ; [ DW_TAG_subprogram ]
!569 = metadata !{i32 786478, i32 0, metadata !308, metadata !"or_reduce", metadata !"or_reduce", metadata !"_ZN11ap_int_baseILi9ELb1ELb1EE9or_reduceEv", metadata !70, i32 2272, metadata !566, i1 false, i1 false, i32 0, i32 0, null, i32 256, i1 false, null, null, i32 0, metadata !82, i32 2272} ; [ DW_TAG_subprogram ]
!570 = metadata !{i32 786478, i32 0, metadata !308, metadata !"nor_reduce", metadata !"nor_reduce", metadata !"_ZN11ap_int_baseILi9ELb1ELb1EE10nor_reduceEv", metadata !70, i32 2275, metadata !566, i1 false, i1 false, i32 0, i32 0, null, i32 256, i1 false, null, null, i32 0, metadata !82, i32 2275} ; [ DW_TAG_subprogram ]
!571 = metadata !{i32 786478, i32 0, metadata !308, metadata !"xor_reduce", metadata !"xor_reduce", metadata !"_ZN11ap_int_baseILi9ELb1ELb1EE10xor_reduceEv", metadata !70, i32 2278, metadata !566, i1 false, i1 false, i32 0, i32 0, null, i32 256, i1 false, null, null, i32 0, metadata !82, i32 2278} ; [ DW_TAG_subprogram ]
!572 = metadata !{i32 786478, i32 0, metadata !308, metadata !"xnor_reduce", metadata !"xnor_reduce", metadata !"_ZN11ap_int_baseILi9ELb1ELb1EE11xnor_reduceEv", metadata !70, i32 2281, metadata !566, i1 false, i1 false, i32 0, i32 0, null, i32 256, i1 false, null, null, i32 0, metadata !82, i32 2281} ; [ DW_TAG_subprogram ]
!573 = metadata !{i32 786478, i32 0, metadata !308, metadata !"and_reduce", metadata !"and_reduce", metadata !"_ZNK11ap_int_baseILi9ELb1ELb1EE10and_reduceEv", metadata !70, i32 2285, metadata !437, i1 false, i1 false, i32 0, i32 0, null, i32 256, i1 false, null, null, i32 0, metadata !82, i32 2285} ; [ DW_TAG_subprogram ]
!574 = metadata !{i32 786478, i32 0, metadata !308, metadata !"nand_reduce", metadata !"nand_reduce", metadata !"_ZNK11ap_int_baseILi9ELb1ELb1EE11nand_reduceEv", metadata !70, i32 2288, metadata !437, i1 false, i1 false, i32 0, i32 0, null, i32 256, i1 false, null, null, i32 0, metadata !82, i32 2288} ; [ DW_TAG_subprogram ]
!575 = metadata !{i32 786478, i32 0, metadata !308, metadata !"or_reduce", metadata !"or_reduce", metadata !"_ZNK11ap_int_baseILi9ELb1ELb1EE9or_reduceEv", metadata !70, i32 2291, metadata !437, i1 false, i1 false, i32 0, i32 0, null, i32 256, i1 false, null, null, i32 0, metadata !82, i32 2291} ; [ DW_TAG_subprogram ]
!576 = metadata !{i32 786478, i32 0, metadata !308, metadata !"nor_reduce", metadata !"nor_reduce", metadata !"_ZNK11ap_int_baseILi9ELb1ELb1EE10nor_reduceEv", metadata !70, i32 2294, metadata !437, i1 false, i1 false, i32 0, i32 0, null, i32 256, i1 false, null, null, i32 0, metadata !82, i32 2294} ; [ DW_TAG_subprogram ]
!577 = metadata !{i32 786478, i32 0, metadata !308, metadata !"xor_reduce", metadata !"xor_reduce", metadata !"_ZNK11ap_int_baseILi9ELb1ELb1EE10xor_reduceEv", metadata !70, i32 2297, metadata !437, i1 false, i1 false, i32 0, i32 0, null, i32 256, i1 false, null, null, i32 0, metadata !82, i32 2297} ; [ DW_TAG_subprogram ]
!578 = metadata !{i32 786478, i32 0, metadata !308, metadata !"xnor_reduce", metadata !"xnor_reduce", metadata !"_ZNK11ap_int_baseILi9ELb1ELb1EE11xnor_reduceEv", metadata !70, i32 2300, metadata !437, i1 false, i1 false, i32 0, i32 0, null, i32 256, i1 false, null, null, i32 0, metadata !82, i32 2300} ; [ DW_TAG_subprogram ]
!579 = metadata !{i32 786478, i32 0, metadata !308, metadata !"to_string", metadata !"to_string", metadata !"_ZNK11ap_int_baseILi9ELb1ELb1EE9to_stringEPci8BaseModeb", metadata !70, i32 2307, metadata !580, i1 false, i1 false, i32 0, i32 0, null, i32 256, i1 false, null, null, i32 0, metadata !82, i32 2307} ; [ DW_TAG_subprogram ]
!580 = metadata !{i32 786453, i32 0, metadata !"", i32 0, i32 0, i64 0, i64 0, i64 0, i32 0, null, metadata !581, i32 0, i32 0} ; [ DW_TAG_subroutine_type ]
!581 = metadata !{null, metadata !435, metadata !582, metadata !86, metadata !583, metadata !88}
!582 = metadata !{i32 786447, null, metadata !"", null, i32 0, i64 32, i64 32, i64 0, i32 0, metadata !169} ; [ DW_TAG_pointer_type ]
!583 = metadata !{i32 786436, null, metadata !"BaseMode", metadata !70, i32 603, i64 5, i64 8, i32 0, i32 0, null, metadata !584, i32 0, i32 0} ; [ DW_TAG_enumeration_type ]
!584 = metadata !{metadata !585, metadata !586, metadata !587, metadata !588}
!585 = metadata !{i32 786472, metadata !"SC_BIN", i64 2} ; [ DW_TAG_enumerator ]
!586 = metadata !{i32 786472, metadata !"SC_OCT", i64 8} ; [ DW_TAG_enumerator ]
!587 = metadata !{i32 786472, metadata !"SC_DEC", i64 10} ; [ DW_TAG_enumerator ]
!588 = metadata !{i32 786472, metadata !"SC_HEX", i64 16} ; [ DW_TAG_enumerator ]
!589 = metadata !{i32 786478, i32 0, metadata !308, metadata !"to_string", metadata !"to_string", metadata !"_ZNK11ap_int_baseILi9ELb1ELb1EE9to_stringE8BaseModeb", metadata !70, i32 2334, metadata !590, i1 false, i1 false, i32 0, i32 0, null, i32 256, i1 false, null, null, i32 0, metadata !82, i32 2334} ; [ DW_TAG_subprogram ]
!590 = metadata !{i32 786453, i32 0, metadata !"", i32 0, i32 0, i64 0, i64 0, i64 0, i32 0, null, metadata !591, i32 0, i32 0} ; [ DW_TAG_subroutine_type ]
!591 = metadata !{metadata !582, metadata !435, metadata !583, metadata !88}
!592 = metadata !{i32 786478, i32 0, metadata !308, metadata !"to_string", metadata !"to_string", metadata !"_ZNK11ap_int_baseILi9ELb1ELb1EE9to_stringEab", metadata !70, i32 2338, metadata !593, i1 false, i1 false, i32 0, i32 0, null, i32 256, i1 false, null, null, i32 0, metadata !82, i32 2338} ; [ DW_TAG_subprogram ]
!593 = metadata !{i32 786453, i32 0, metadata !"", i32 0, i32 0, i64 0, i64 0, i64 0, i32 0, null, metadata !594, i32 0, i32 0} ; [ DW_TAG_subroutine_type ]
!594 = metadata !{metadata !582, metadata !435, metadata !113, metadata !88}
!595 = metadata !{metadata !561, metadata !321, metadata !596}
!596 = metadata !{i32 786480, null, metadata !"_AP_C", metadata !88, i64 1, null, i32 0, i32 0} ; [ DW_TAG_template_value_parameter ]
!597 = metadata !{i32 786478, i32 0, metadata !69, metadata !"range", metadata !"range", metadata !"_ZN11ap_int_baseILi8ELb0ELb1EE5rangeEii", metadata !70, i32 2007, metadata !598, i1 false, i1 false, i32 0, i32 0, null, i32 256, i1 false, null, null, i32 0, metadata !82, i32 2007} ; [ DW_TAG_subprogram ]
!598 = metadata !{i32 786453, i32 0, metadata !"", i32 0, i32 0, i64 0, i64 0, i64 0, i32 0, null, metadata !599, i32 0, i32 0} ; [ DW_TAG_subroutine_type ]
!599 = metadata !{metadata !600, metadata !92, metadata !86, metadata !86}
!600 = metadata !{i32 786434, null, metadata !"ap_range_ref<8, false>", metadata !70, i32 924, i32 0, i32 0, i32 0, i32 4, null, null, i32 0} ; [ DW_TAG_class_type ]
!601 = metadata !{i32 786478, i32 0, metadata !69, metadata !"operator()", metadata !"operator()", metadata !"_ZN11ap_int_baseILi8ELb0ELb1EEclEii", metadata !70, i32 2013, metadata !598, i1 false, i1 false, i32 0, i32 0, null, i32 256, i1 false, null, null, i32 0, metadata !82, i32 2013} ; [ DW_TAG_subprogram ]
!602 = metadata !{i32 786478, i32 0, metadata !69, metadata !"range", metadata !"range", metadata !"_ZNK11ap_int_baseILi8ELb0ELb1EE5rangeEii", metadata !70, i32 2019, metadata !603, i1 false, i1 false, i32 0, i32 0, null, i32 256, i1 false, null, null, i32 0, metadata !82, i32 2019} ; [ DW_TAG_subprogram ]
!603 = metadata !{i32 786453, i32 0, metadata !"", i32 0, i32 0, i64 0, i64 0, i64 0, i32 0, null, metadata !604, i32 0, i32 0} ; [ DW_TAG_subroutine_type ]
!604 = metadata !{metadata !600, metadata !230, metadata !86, metadata !86}
!605 = metadata !{i32 786478, i32 0, metadata !69, metadata !"operator()", metadata !"operator()", metadata !"_ZNK11ap_int_baseILi8ELb0ELb1EEclEii", metadata !70, i32 2025, metadata !603, i1 false, i1 false, i32 0, i32 0, null, i32 256, i1 false, null, null, i32 0, metadata !82, i32 2025} ; [ DW_TAG_subprogram ]
!606 = metadata !{i32 786478, i32 0, metadata !69, metadata !"operator[]", metadata !"operator[]", metadata !"_ZN11ap_int_baseILi8ELb0ELb1EEixEi", metadata !70, i32 2044, metadata !607, i1 false, i1 false, i32 0, i32 0, null, i32 256, i1 false, null, null, i32 0, metadata !82, i32 2044} ; [ DW_TAG_subprogram ]
!607 = metadata !{i32 786453, i32 0, metadata !"", i32 0, i32 0, i64 0, i64 0, i64 0, i32 0, null, metadata !608, i32 0, i32 0} ; [ DW_TAG_subroutine_type ]
!608 = metadata !{metadata !609, metadata !92, metadata !86}
!609 = metadata !{i32 786434, null, metadata !"ap_bit_ref<8, false>", metadata !70, i32 1194, i32 0, i32 0, i32 0, i32 4, null, null, i32 0} ; [ DW_TAG_class_type ]
!610 = metadata !{i32 786478, i32 0, metadata !69, metadata !"operator[]", metadata !"operator[]", metadata !"_ZNK11ap_int_baseILi8ELb0ELb1EEixEi", metadata !70, i32 2058, metadata !281, i1 false, i1 false, i32 0, i32 0, null, i32 256, i1 false, null, null, i32 0, metadata !82, i32 2058} ; [ DW_TAG_subprogram ]
!611 = metadata !{i32 786478, i32 0, metadata !69, metadata !"bit", metadata !"bit", metadata !"_ZN11ap_int_baseILi8ELb0ELb1EE3bitEi", metadata !70, i32 2072, metadata !607, i1 false, i1 false, i32 0, i32 0, null, i32 256, i1 false, null, null, i32 0, metadata !82, i32 2072} ; [ DW_TAG_subprogram ]
!612 = metadata !{i32 786478, i32 0, metadata !69, metadata !"bit", metadata !"bit", metadata !"_ZNK11ap_int_baseILi8ELb0ELb1EE3bitEi", metadata !70, i32 2086, metadata !281, i1 false, i1 false, i32 0, i32 0, null, i32 256, i1 false, null, null, i32 0, metadata !82, i32 2086} ; [ DW_TAG_subprogram ]
!613 = metadata !{i32 786478, i32 0, metadata !69, metadata !"and_reduce", metadata !"and_reduce", metadata !"_ZN11ap_int_baseILi8ELb0ELb1EE10and_reduceEv", metadata !70, i32 2266, metadata !614, i1 false, i1 false, i32 0, i32 0, null, i32 256, i1 false, null, null, i32 0, metadata !82, i32 2266} ; [ DW_TAG_subprogram ]
!614 = metadata !{i32 786453, i32 0, metadata !"", i32 0, i32 0, i64 0, i64 0, i64 0, i32 0, null, metadata !615, i32 0, i32 0} ; [ DW_TAG_subroutine_type ]
!615 = metadata !{metadata !88, metadata !92}
!616 = metadata !{i32 786478, i32 0, metadata !69, metadata !"nand_reduce", metadata !"nand_reduce", metadata !"_ZN11ap_int_baseILi8ELb0ELb1EE11nand_reduceEv", metadata !70, i32 2269, metadata !614, i1 false, i1 false, i32 0, i32 0, null, i32 256, i1 false, null, null, i32 0, metadata !82, i32 2269} ; [ DW_TAG_subprogram ]
!617 = metadata !{i32 786478, i32 0, metadata !69, metadata !"or_reduce", metadata !"or_reduce", metadata !"_ZN11ap_int_baseILi8ELb0ELb1EE9or_reduceEv", metadata !70, i32 2272, metadata !614, i1 false, i1 false, i32 0, i32 0, null, i32 256, i1 false, null, null, i32 0, metadata !82, i32 2272} ; [ DW_TAG_subprogram ]
!618 = metadata !{i32 786478, i32 0, metadata !69, metadata !"nor_reduce", metadata !"nor_reduce", metadata !"_ZN11ap_int_baseILi8ELb0ELb1EE10nor_reduceEv", metadata !70, i32 2275, metadata !614, i1 false, i1 false, i32 0, i32 0, null, i32 256, i1 false, null, null, i32 0, metadata !82, i32 2275} ; [ DW_TAG_subprogram ]
!619 = metadata !{i32 786478, i32 0, metadata !69, metadata !"xor_reduce", metadata !"xor_reduce", metadata !"_ZN11ap_int_baseILi8ELb0ELb1EE10xor_reduceEv", metadata !70, i32 2278, metadata !614, i1 false, i1 false, i32 0, i32 0, null, i32 256, i1 false, null, null, i32 0, metadata !82, i32 2278} ; [ DW_TAG_subprogram ]
!620 = metadata !{i32 786478, i32 0, metadata !69, metadata !"xnor_reduce", metadata !"xnor_reduce", metadata !"_ZN11ap_int_baseILi8ELb0ELb1EE11xnor_reduceEv", metadata !70, i32 2281, metadata !614, i1 false, i1 false, i32 0, i32 0, null, i32 256, i1 false, null, null, i32 0, metadata !82, i32 2281} ; [ DW_TAG_subprogram ]
!621 = metadata !{i32 786478, i32 0, metadata !69, metadata !"and_reduce", metadata !"and_reduce", metadata !"_ZNK11ap_int_baseILi8ELb0ELb1EE10and_reduceEv", metadata !70, i32 2285, metadata !232, i1 false, i1 false, i32 0, i32 0, null, i32 256, i1 false, null, null, i32 0, metadata !82, i32 2285} ; [ DW_TAG_subprogram ]
!622 = metadata !{i32 786478, i32 0, metadata !69, metadata !"nand_reduce", metadata !"nand_reduce", metadata !"_ZNK11ap_int_baseILi8ELb0ELb1EE11nand_reduceEv", metadata !70, i32 2288, metadata !232, i1 false, i1 false, i32 0, i32 0, null, i32 256, i1 false, null, null, i32 0, metadata !82, i32 2288} ; [ DW_TAG_subprogram ]
!623 = metadata !{i32 786478, i32 0, metadata !69, metadata !"or_reduce", metadata !"or_reduce", metadata !"_ZNK11ap_int_baseILi8ELb0ELb1EE9or_reduceEv", metadata !70, i32 2291, metadata !232, i1 false, i1 false, i32 0, i32 0, null, i32 256, i1 false, null, null, i32 0, metadata !82, i32 2291} ; [ DW_TAG_subprogram ]
!624 = metadata !{i32 786478, i32 0, metadata !69, metadata !"nor_reduce", metadata !"nor_reduce", metadata !"_ZNK11ap_int_baseILi8ELb0ELb1EE10nor_reduceEv", metadata !70, i32 2294, metadata !232, i1 false, i1 false, i32 0, i32 0, null, i32 256, i1 false, null, null, i32 0, metadata !82, i32 2294} ; [ DW_TAG_subprogram ]
!625 = metadata !{i32 786478, i32 0, metadata !69, metadata !"xor_reduce", metadata !"xor_reduce", metadata !"_ZNK11ap_int_baseILi8ELb0ELb1EE10xor_reduceEv", metadata !70, i32 2297, metadata !232, i1 false, i1 false, i32 0, i32 0, null, i32 256, i1 false, null, null, i32 0, metadata !82, i32 2297} ; [ DW_TAG_subprogram ]
!626 = metadata !{i32 786478, i32 0, metadata !69, metadata !"xnor_reduce", metadata !"xnor_reduce", metadata !"_ZNK11ap_int_baseILi8ELb0ELb1EE11xnor_reduceEv", metadata !70, i32 2300, metadata !232, i1 false, i1 false, i32 0, i32 0, null, i32 256, i1 false, null, null, i32 0, metadata !82, i32 2300} ; [ DW_TAG_subprogram ]
!627 = metadata !{i32 786478, i32 0, metadata !69, metadata !"to_string", metadata !"to_string", metadata !"_ZNK11ap_int_baseILi8ELb0ELb1EE9to_stringEPci8BaseModeb", metadata !70, i32 2307, metadata !628, i1 false, i1 false, i32 0, i32 0, null, i32 256, i1 false, null, null, i32 0, metadata !82, i32 2307} ; [ DW_TAG_subprogram ]
!628 = metadata !{i32 786453, i32 0, metadata !"", i32 0, i32 0, i64 0, i64 0, i64 0, i32 0, null, metadata !629, i32 0, i32 0} ; [ DW_TAG_subroutine_type ]
!629 = metadata !{null, metadata !230, metadata !582, metadata !86, metadata !583, metadata !88}
!630 = metadata !{i32 786478, i32 0, metadata !69, metadata !"to_string", metadata !"to_string", metadata !"_ZNK11ap_int_baseILi8ELb0ELb1EE9to_stringE8BaseModeb", metadata !70, i32 2334, metadata !631, i1 false, i1 false, i32 0, i32 0, null, i32 256, i1 false, null, null, i32 0, metadata !82, i32 2334} ; [ DW_TAG_subprogram ]
!631 = metadata !{i32 786453, i32 0, metadata !"", i32 0, i32 0, i64 0, i64 0, i64 0, i32 0, null, metadata !632, i32 0, i32 0} ; [ DW_TAG_subroutine_type ]
!632 = metadata !{metadata !582, metadata !230, metadata !583, metadata !88}
!633 = metadata !{i32 786478, i32 0, metadata !69, metadata !"to_string", metadata !"to_string", metadata !"_ZNK11ap_int_baseILi8ELb0ELb1EE9to_stringEab", metadata !70, i32 2338, metadata !634, i1 false, i1 false, i32 0, i32 0, null, i32 256, i1 false, null, null, i32 0, metadata !82, i32 2338} ; [ DW_TAG_subprogram ]
!634 = metadata !{i32 786453, i32 0, metadata !"", i32 0, i32 0, i64 0, i64 0, i64 0, i32 0, null, metadata !635, i32 0, i32 0} ; [ DW_TAG_subroutine_type ]
!635 = metadata !{metadata !582, metadata !230, metadata !113, metadata !88}
!636 = metadata !{metadata !637, metadata !87, metadata !596}
!637 = metadata !{i32 786480, null, metadata !"_AP_W", metadata !86, i64 8, null, i32 0, i32 0} ; [ DW_TAG_template_value_parameter ]
!638 = metadata !{i32 786478, i32 0, metadata !65, metadata !"ap_uint", metadata !"ap_uint", metadata !"", metadata !66, i32 185, metadata !639, i1 false, i1 false, i32 0, i32 0, null, i32 256, i1 false, null, null, i32 0, metadata !82, i32 185} ; [ DW_TAG_subprogram ]
!639 = metadata !{i32 786453, i32 0, metadata !"", i32 0, i32 0, i64 0, i64 0, i64 0, i32 0, null, metadata !640, i32 0, i32 0} ; [ DW_TAG_subroutine_type ]
!640 = metadata !{null, metadata !641}
!641 = metadata !{i32 786447, i32 0, metadata !"", i32 0, i32 0, i64 32, i64 32, i64 0, i32 64, metadata !65} ; [ DW_TAG_pointer_type ]
!642 = metadata !{i32 786478, i32 0, metadata !65, metadata !"ap_uint<16, false>", metadata !"ap_uint<16, false>", metadata !"", metadata !66, i32 228, metadata !643, i1 false, i1 false, i32 0, i32 0, null, i32 256, i1 false, null, metadata !667, i32 0, metadata !82, i32 228} ; [ DW_TAG_subprogram ]
!643 = metadata !{i32 786453, i32 0, metadata !"", i32 0, i32 0, i64 0, i64 0, i64 0, i32 0, null, metadata !644, i32 0, i32 0} ; [ DW_TAG_subroutine_type ]
!644 = metadata !{null, metadata !641, metadata !645}
!645 = metadata !{i32 786448, null, null, null, i32 0, i64 0, i64 0, i64 0, i32 0, metadata !646} ; [ DW_TAG_reference_type ]
!646 = metadata !{i32 786470, null, metadata !"", null, i32 0, i64 0, i64 0, i64 0, i32 0, metadata !647} ; [ DW_TAG_const_type ]
!647 = metadata !{i32 786434, null, metadata !"ap_int_base<16, false, true>", metadata !70, i32 1398, i64 16, i64 16, i32 0, i32 0, null, metadata !648, i32 0, null, metadata !1176} ; [ DW_TAG_class_type ]
!648 = metadata !{metadata !649, metadata !660, metadata !664, metadata !669, metadata !675, metadata !678, metadata !681, metadata !684, metadata !687, metadata !690, metadata !693, metadata !696, metadata !699, metadata !702, metadata !705, metadata !708, metadata !711, metadata !714, metadata !717, metadata !720, metadata !723, metadata !727, metadata !730, metadata !733, metadata !734, metadata !738, metadata !741, metadata !744, metadata !747, metadata !750, metadata !753, metadata !756, metadata !759, metadata !762, metadata !765, metadata !768, metadata !771, metadata !779, metadata !782, metadata !785, metadata !788, metadata !791, metadata !794, metadata !797, metadata !800, metadata !803, metadata !806, metadata !809, metadata !812, metadata !815, metadata !816, metadata !820, metadata !823, metadata !824, metadata !825, metadata !826, metadata !827, metadata !828, metadata !831, metadata !832, metadata !835, metadata !836, metadata !837, metadata !838, metadata !839, metadata !840, metadata !843, metadata !844, metadata !845, metadata !848, metadata !849, metadata !852, metadata !853, metadata !1136, metadata !1140, metadata !1141, metadata !1144, metadata !1145, metadata !1149, metadata !1150, metadata !1151, metadata !1152, metadata !1155, metadata !1156, metadata !1157, metadata !1158, metadata !1159, metadata !1160, metadata !1161, metadata !1162, metadata !1163, metadata !1164, metadata !1165, metadata !1166, metadata !1169, metadata !1172, metadata !1175}
!649 = metadata !{i32 786460, metadata !647, null, metadata !70, i32 0, i64 0, i64 0, i64 0, i32 0, metadata !650} ; [ DW_TAG_inheritance ]
!650 = metadata !{i32 786434, null, metadata !"ssdm_int<16 + 1024 * 0, false>", metadata !74, i32 18, i64 16, i64 16, i32 0, i32 0, null, metadata !651, i32 0, null, metadata !658} ; [ DW_TAG_class_type ]
!651 = metadata !{metadata !652, metadata !654}
!652 = metadata !{i32 786445, metadata !650, metadata !"V", metadata !74, i32 18, i64 16, i64 16, i64 0, i32 0, metadata !653} ; [ DW_TAG_member ]
!653 = metadata !{i32 786468, null, metadata !"uint16", null, i32 0, i64 16, i64 16, i64 0, i32 0, i32 7} ; [ DW_TAG_base_type ]
!654 = metadata !{i32 786478, i32 0, metadata !650, metadata !"ssdm_int", metadata !"ssdm_int", metadata !"", metadata !74, i32 18, metadata !655, i1 false, i1 false, i32 0, i32 0, null, i32 256, i1 false, null, null, i32 0, metadata !82, i32 18} ; [ DW_TAG_subprogram ]
!655 = metadata !{i32 786453, i32 0, metadata !"", i32 0, i32 0, i64 0, i64 0, i64 0, i32 0, null, metadata !656, i32 0, i32 0} ; [ DW_TAG_subroutine_type ]
!656 = metadata !{null, metadata !657}
!657 = metadata !{i32 786447, i32 0, metadata !"", i32 0, i32 0, i64 32, i64 32, i64 0, i32 64, metadata !650} ; [ DW_TAG_pointer_type ]
!658 = metadata !{metadata !659, metadata !87}
!659 = metadata !{i32 786480, null, metadata !"_AP_N", metadata !86, i64 16, null, i32 0, i32 0} ; [ DW_TAG_template_value_parameter ]
!660 = metadata !{i32 786478, i32 0, metadata !647, metadata !"ap_int_base", metadata !"ap_int_base", metadata !"", metadata !70, i32 1439, metadata !661, i1 false, i1 false, i32 0, i32 0, null, i32 256, i1 false, null, null, i32 0, metadata !82, i32 1439} ; [ DW_TAG_subprogram ]
!661 = metadata !{i32 786453, i32 0, metadata !"", i32 0, i32 0, i64 0, i64 0, i64 0, i32 0, null, metadata !662, i32 0, i32 0} ; [ DW_TAG_subroutine_type ]
!662 = metadata !{null, metadata !663}
!663 = metadata !{i32 786447, i32 0, metadata !"", i32 0, i32 0, i64 32, i64 32, i64 0, i32 64, metadata !647} ; [ DW_TAG_pointer_type ]
!664 = metadata !{i32 786478, i32 0, metadata !647, metadata !"ap_int_base<16, false>", metadata !"ap_int_base<16, false>", metadata !"", metadata !70, i32 1451, metadata !665, i1 false, i1 false, i32 0, i32 0, null, i32 256, i1 false, null, metadata !667, i32 0, metadata !82, i32 1451} ; [ DW_TAG_subprogram ]
!665 = metadata !{i32 786453, i32 0, metadata !"", i32 0, i32 0, i64 0, i64 0, i64 0, i32 0, null, metadata !666, i32 0, i32 0} ; [ DW_TAG_subroutine_type ]
!666 = metadata !{null, metadata !663, metadata !645}
!667 = metadata !{metadata !668, metadata !100}
!668 = metadata !{i32 786480, null, metadata !"_AP_W2", metadata !86, i64 16, null, i32 0, i32 0} ; [ DW_TAG_template_value_parameter ]
!669 = metadata !{i32 786478, i32 0, metadata !647, metadata !"ap_int_base<16, false>", metadata !"ap_int_base<16, false>", metadata !"", metadata !70, i32 1454, metadata !670, i1 false, i1 false, i32 0, i32 0, null, i32 256, i1 false, null, metadata !667, i32 0, metadata !82, i32 1454} ; [ DW_TAG_subprogram ]
!670 = metadata !{i32 786453, i32 0, metadata !"", i32 0, i32 0, i64 0, i64 0, i64 0, i32 0, null, metadata !671, i32 0, i32 0} ; [ DW_TAG_subroutine_type ]
!671 = metadata !{null, metadata !663, metadata !672}
!672 = metadata !{i32 786448, null, null, null, i32 0, i64 0, i64 0, i64 0, i32 0, metadata !673} ; [ DW_TAG_reference_type ]
!673 = metadata !{i32 786470, null, metadata !"", null, i32 0, i64 0, i64 0, i64 0, i32 0, metadata !674} ; [ DW_TAG_const_type ]
!674 = metadata !{i32 786485, null, metadata !"", null, i32 0, i64 0, i64 0, i64 0, i32 0, metadata !647} ; [ DW_TAG_volatile_type ]
!675 = metadata !{i32 786478, i32 0, metadata !647, metadata !"ap_int_base", metadata !"ap_int_base", metadata !"", metadata !70, i32 1461, metadata !676, i1 false, i1 false, i32 0, i32 0, null, i32 384, i1 false, null, null, i32 0, metadata !82, i32 1461} ; [ DW_TAG_subprogram ]
!676 = metadata !{i32 786453, i32 0, metadata !"", i32 0, i32 0, i64 0, i64 0, i64 0, i32 0, null, metadata !677, i32 0, i32 0} ; [ DW_TAG_subroutine_type ]
!677 = metadata !{null, metadata !663, metadata !88}
!678 = metadata !{i32 786478, i32 0, metadata !647, metadata !"ap_int_base", metadata !"ap_int_base", metadata !"", metadata !70, i32 1462, metadata !679, i1 false, i1 false, i32 0, i32 0, null, i32 384, i1 false, null, null, i32 0, metadata !82, i32 1462} ; [ DW_TAG_subprogram ]
!679 = metadata !{i32 786453, i32 0, metadata !"", i32 0, i32 0, i64 0, i64 0, i64 0, i32 0, null, metadata !680, i32 0, i32 0} ; [ DW_TAG_subroutine_type ]
!680 = metadata !{null, metadata !663, metadata !113}
!681 = metadata !{i32 786478, i32 0, metadata !647, metadata !"ap_int_base", metadata !"ap_int_base", metadata !"", metadata !70, i32 1463, metadata !682, i1 false, i1 false, i32 0, i32 0, null, i32 384, i1 false, null, null, i32 0, metadata !82, i32 1463} ; [ DW_TAG_subprogram ]
!682 = metadata !{i32 786453, i32 0, metadata !"", i32 0, i32 0, i64 0, i64 0, i64 0, i32 0, null, metadata !683, i32 0, i32 0} ; [ DW_TAG_subroutine_type ]
!683 = metadata !{null, metadata !663, metadata !117}
!684 = metadata !{i32 786478, i32 0, metadata !647, metadata !"ap_int_base", metadata !"ap_int_base", metadata !"", metadata !70, i32 1464, metadata !685, i1 false, i1 false, i32 0, i32 0, null, i32 384, i1 false, null, null, i32 0, metadata !82, i32 1464} ; [ DW_TAG_subprogram ]
!685 = metadata !{i32 786453, i32 0, metadata !"", i32 0, i32 0, i64 0, i64 0, i64 0, i32 0, null, metadata !686, i32 0, i32 0} ; [ DW_TAG_subroutine_type ]
!686 = metadata !{null, metadata !663, metadata !121}
!687 = metadata !{i32 786478, i32 0, metadata !647, metadata !"ap_int_base", metadata !"ap_int_base", metadata !"", metadata !70, i32 1465, metadata !688, i1 false, i1 false, i32 0, i32 0, null, i32 384, i1 false, null, null, i32 0, metadata !82, i32 1465} ; [ DW_TAG_subprogram ]
!688 = metadata !{i32 786453, i32 0, metadata !"", i32 0, i32 0, i64 0, i64 0, i64 0, i32 0, null, metadata !689, i32 0, i32 0} ; [ DW_TAG_subroutine_type ]
!689 = metadata !{null, metadata !663, metadata !125}
!690 = metadata !{i32 786478, i32 0, metadata !647, metadata !"ap_int_base", metadata !"ap_int_base", metadata !"", metadata !70, i32 1466, metadata !691, i1 false, i1 false, i32 0, i32 0, null, i32 384, i1 false, null, null, i32 0, metadata !82, i32 1466} ; [ DW_TAG_subprogram ]
!691 = metadata !{i32 786453, i32 0, metadata !"", i32 0, i32 0, i64 0, i64 0, i64 0, i32 0, null, metadata !692, i32 0, i32 0} ; [ DW_TAG_subroutine_type ]
!692 = metadata !{null, metadata !663, metadata !86}
!693 = metadata !{i32 786478, i32 0, metadata !647, metadata !"ap_int_base", metadata !"ap_int_base", metadata !"", metadata !70, i32 1467, metadata !694, i1 false, i1 false, i32 0, i32 0, null, i32 384, i1 false, null, null, i32 0, metadata !82, i32 1467} ; [ DW_TAG_subprogram ]
!694 = metadata !{i32 786453, i32 0, metadata !"", i32 0, i32 0, i64 0, i64 0, i64 0, i32 0, null, metadata !695, i32 0, i32 0} ; [ DW_TAG_subroutine_type ]
!695 = metadata !{null, metadata !663, metadata !132}
!696 = metadata !{i32 786478, i32 0, metadata !647, metadata !"ap_int_base", metadata !"ap_int_base", metadata !"", metadata !70, i32 1468, metadata !697, i1 false, i1 false, i32 0, i32 0, null, i32 384, i1 false, null, null, i32 0, metadata !82, i32 1468} ; [ DW_TAG_subprogram ]
!697 = metadata !{i32 786453, i32 0, metadata !"", i32 0, i32 0, i64 0, i64 0, i64 0, i32 0, null, metadata !698, i32 0, i32 0} ; [ DW_TAG_subroutine_type ]
!698 = metadata !{null, metadata !663, metadata !136}
!699 = metadata !{i32 786478, i32 0, metadata !647, metadata !"ap_int_base", metadata !"ap_int_base", metadata !"", metadata !70, i32 1469, metadata !700, i1 false, i1 false, i32 0, i32 0, null, i32 384, i1 false, null, null, i32 0, metadata !82, i32 1469} ; [ DW_TAG_subprogram ]
!700 = metadata !{i32 786453, i32 0, metadata !"", i32 0, i32 0, i64 0, i64 0, i64 0, i32 0, null, metadata !701, i32 0, i32 0} ; [ DW_TAG_subroutine_type ]
!701 = metadata !{null, metadata !663, metadata !140}
!702 = metadata !{i32 786478, i32 0, metadata !647, metadata !"ap_int_base", metadata !"ap_int_base", metadata !"", metadata !70, i32 1470, metadata !703, i1 false, i1 false, i32 0, i32 0, null, i32 384, i1 false, null, null, i32 0, metadata !82, i32 1470} ; [ DW_TAG_subprogram ]
!703 = metadata !{i32 786453, i32 0, metadata !"", i32 0, i32 0, i64 0, i64 0, i64 0, i32 0, null, metadata !704, i32 0, i32 0} ; [ DW_TAG_subroutine_type ]
!704 = metadata !{null, metadata !663, metadata !144}
!705 = metadata !{i32 786478, i32 0, metadata !647, metadata !"ap_int_base", metadata !"ap_int_base", metadata !"", metadata !70, i32 1471, metadata !706, i1 false, i1 false, i32 0, i32 0, null, i32 384, i1 false, null, null, i32 0, metadata !82, i32 1471} ; [ DW_TAG_subprogram ]
!706 = metadata !{i32 786453, i32 0, metadata !"", i32 0, i32 0, i64 0, i64 0, i64 0, i32 0, null, metadata !707, i32 0, i32 0} ; [ DW_TAG_subroutine_type ]
!707 = metadata !{null, metadata !663, metadata !149}
!708 = metadata !{i32 786478, i32 0, metadata !647, metadata !"ap_int_base", metadata !"ap_int_base", metadata !"", metadata !70, i32 1472, metadata !709, i1 false, i1 false, i32 0, i32 0, null, i32 384, i1 false, null, null, i32 0, metadata !82, i32 1472} ; [ DW_TAG_subprogram ]
!709 = metadata !{i32 786453, i32 0, metadata !"", i32 0, i32 0, i64 0, i64 0, i64 0, i32 0, null, metadata !710, i32 0, i32 0} ; [ DW_TAG_subroutine_type ]
!710 = metadata !{null, metadata !663, metadata !154}
!711 = metadata !{i32 786478, i32 0, metadata !647, metadata !"ap_int_base", metadata !"ap_int_base", metadata !"", metadata !70, i32 1473, metadata !712, i1 false, i1 false, i32 0, i32 0, null, i32 384, i1 false, null, null, i32 0, metadata !82, i32 1473} ; [ DW_TAG_subprogram ]
!712 = metadata !{i32 786453, i32 0, metadata !"", i32 0, i32 0, i64 0, i64 0, i64 0, i32 0, null, metadata !713, i32 0, i32 0} ; [ DW_TAG_subroutine_type ]
!713 = metadata !{null, metadata !663, metadata !159}
!714 = metadata !{i32 786478, i32 0, metadata !647, metadata !"ap_int_base", metadata !"ap_int_base", metadata !"", metadata !70, i32 1474, metadata !715, i1 false, i1 false, i32 0, i32 0, null, i32 384, i1 false, null, null, i32 0, metadata !82, i32 1474} ; [ DW_TAG_subprogram ]
!715 = metadata !{i32 786453, i32 0, metadata !"", i32 0, i32 0, i64 0, i64 0, i64 0, i32 0, null, metadata !716, i32 0, i32 0} ; [ DW_TAG_subroutine_type ]
!716 = metadata !{null, metadata !663, metadata !163}
!717 = metadata !{i32 786478, i32 0, metadata !647, metadata !"ap_int_base", metadata !"ap_int_base", metadata !"", metadata !70, i32 1501, metadata !718, i1 false, i1 false, i32 0, i32 0, null, i32 256, i1 false, null, null, i32 0, metadata !82, i32 1501} ; [ DW_TAG_subprogram ]
!718 = metadata !{i32 786453, i32 0, metadata !"", i32 0, i32 0, i64 0, i64 0, i64 0, i32 0, null, metadata !719, i32 0, i32 0} ; [ DW_TAG_subroutine_type ]
!719 = metadata !{null, metadata !663, metadata !167}
!720 = metadata !{i32 786478, i32 0, metadata !647, metadata !"ap_int_base", metadata !"ap_int_base", metadata !"", metadata !70, i32 1508, metadata !721, i1 false, i1 false, i32 0, i32 0, null, i32 256, i1 false, null, null, i32 0, metadata !82, i32 1508} ; [ DW_TAG_subprogram ]
!721 = metadata !{i32 786453, i32 0, metadata !"", i32 0, i32 0, i64 0, i64 0, i64 0, i32 0, null, metadata !722, i32 0, i32 0} ; [ DW_TAG_subroutine_type ]
!722 = metadata !{null, metadata !663, metadata !167, metadata !113}
!723 = metadata !{i32 786478, i32 0, metadata !647, metadata !"read", metadata !"read", metadata !"_ZNV11ap_int_baseILi16ELb0ELb1EE4readEv", metadata !70, i32 1529, metadata !724, i1 false, i1 false, i32 0, i32 0, null, i32 256, i1 false, null, null, i32 0, metadata !82, i32 1529} ; [ DW_TAG_subprogram ]
!724 = metadata !{i32 786453, i32 0, metadata !"", i32 0, i32 0, i64 0, i64 0, i64 0, i32 0, null, metadata !725, i32 0, i32 0} ; [ DW_TAG_subroutine_type ]
!725 = metadata !{metadata !647, metadata !726}
!726 = metadata !{i32 786447, i32 0, metadata !"", i32 0, i32 0, i64 32, i64 32, i64 0, i32 64, metadata !674} ; [ DW_TAG_pointer_type ]
!727 = metadata !{i32 786478, i32 0, metadata !647, metadata !"write", metadata !"write", metadata !"_ZNV11ap_int_baseILi16ELb0ELb1EE5writeERKS0_", metadata !70, i32 1535, metadata !728, i1 false, i1 false, i32 0, i32 0, null, i32 256, i1 false, null, null, i32 0, metadata !82, i32 1535} ; [ DW_TAG_subprogram ]
!728 = metadata !{i32 786453, i32 0, metadata !"", i32 0, i32 0, i64 0, i64 0, i64 0, i32 0, null, metadata !729, i32 0, i32 0} ; [ DW_TAG_subroutine_type ]
!729 = metadata !{null, metadata !726, metadata !645}
!730 = metadata !{i32 786478, i32 0, metadata !647, metadata !"operator=", metadata !"operator=", metadata !"_ZNV11ap_int_baseILi16ELb0ELb1EEaSERVKS0_", metadata !70, i32 1547, metadata !731, i1 false, i1 false, i32 0, i32 0, null, i32 256, i1 false, null, null, i32 0, metadata !82, i32 1547} ; [ DW_TAG_subprogram ]
!731 = metadata !{i32 786453, i32 0, metadata !"", i32 0, i32 0, i64 0, i64 0, i64 0, i32 0, null, metadata !732, i32 0, i32 0} ; [ DW_TAG_subroutine_type ]
!732 = metadata !{null, metadata !726, metadata !672}
!733 = metadata !{i32 786478, i32 0, metadata !647, metadata !"operator=", metadata !"operator=", metadata !"_ZNV11ap_int_baseILi16ELb0ELb1EEaSERKS0_", metadata !70, i32 1556, metadata !728, i1 false, i1 false, i32 0, i32 0, null, i32 256, i1 false, null, null, i32 0, metadata !82, i32 1556} ; [ DW_TAG_subprogram ]
!734 = metadata !{i32 786478, i32 0, metadata !647, metadata !"operator=", metadata !"operator=", metadata !"_ZN11ap_int_baseILi16ELb0ELb1EEaSERVKS0_", metadata !70, i32 1579, metadata !735, i1 false, i1 false, i32 0, i32 0, null, i32 256, i1 false, null, null, i32 0, metadata !82, i32 1579} ; [ DW_TAG_subprogram ]
!735 = metadata !{i32 786453, i32 0, metadata !"", i32 0, i32 0, i64 0, i64 0, i64 0, i32 0, null, metadata !736, i32 0, i32 0} ; [ DW_TAG_subroutine_type ]
!736 = metadata !{metadata !737, metadata !663, metadata !672}
!737 = metadata !{i32 786448, null, null, null, i32 0, i64 0, i64 0, i64 0, i32 0, metadata !647} ; [ DW_TAG_reference_type ]
!738 = metadata !{i32 786478, i32 0, metadata !647, metadata !"operator=", metadata !"operator=", metadata !"_ZN11ap_int_baseILi16ELb0ELb1EEaSERKS0_", metadata !70, i32 1584, metadata !739, i1 false, i1 false, i32 0, i32 0, null, i32 256, i1 false, null, null, i32 0, metadata !82, i32 1584} ; [ DW_TAG_subprogram ]
!739 = metadata !{i32 786453, i32 0, metadata !"", i32 0, i32 0, i64 0, i64 0, i64 0, i32 0, null, metadata !740, i32 0, i32 0} ; [ DW_TAG_subroutine_type ]
!740 = metadata !{metadata !737, metadata !663, metadata !645}
!741 = metadata !{i32 786478, i32 0, metadata !647, metadata !"operator=", metadata !"operator=", metadata !"_ZN11ap_int_baseILi16ELb0ELb1EEaSEPKc", metadata !70, i32 1588, metadata !742, i1 false, i1 false, i32 0, i32 0, null, i32 256, i1 false, null, null, i32 0, metadata !82, i32 1588} ; [ DW_TAG_subprogram ]
!742 = metadata !{i32 786453, i32 0, metadata !"", i32 0, i32 0, i64 0, i64 0, i64 0, i32 0, null, metadata !743, i32 0, i32 0} ; [ DW_TAG_subroutine_type ]
!743 = metadata !{metadata !737, metadata !663, metadata !167}
!744 = metadata !{i32 786478, i32 0, metadata !647, metadata !"set", metadata !"set", metadata !"_ZN11ap_int_baseILi16ELb0ELb1EE3setEPKca", metadata !70, i32 1596, metadata !745, i1 false, i1 false, i32 0, i32 0, null, i32 256, i1 false, null, null, i32 0, metadata !82, i32 1596} ; [ DW_TAG_subprogram ]
!745 = metadata !{i32 786453, i32 0, metadata !"", i32 0, i32 0, i64 0, i64 0, i64 0, i32 0, null, metadata !746, i32 0, i32 0} ; [ DW_TAG_subroutine_type ]
!746 = metadata !{metadata !737, metadata !663, metadata !167, metadata !113}
!747 = metadata !{i32 786478, i32 0, metadata !647, metadata !"operator=", metadata !"operator=", metadata !"_ZN11ap_int_baseILi16ELb0ELb1EEaSEa", metadata !70, i32 1610, metadata !748, i1 false, i1 false, i32 0, i32 0, null, i32 256, i1 false, null, null, i32 0, metadata !82, i32 1610} ; [ DW_TAG_subprogram ]
!748 = metadata !{i32 786453, i32 0, metadata !"", i32 0, i32 0, i64 0, i64 0, i64 0, i32 0, null, metadata !749, i32 0, i32 0} ; [ DW_TAG_subroutine_type ]
!749 = metadata !{metadata !737, metadata !663, metadata !113}
!750 = metadata !{i32 786478, i32 0, metadata !647, metadata !"operator=", metadata !"operator=", metadata !"_ZN11ap_int_baseILi16ELb0ELb1EEaSEh", metadata !70, i32 1611, metadata !751, i1 false, i1 false, i32 0, i32 0, null, i32 256, i1 false, null, null, i32 0, metadata !82, i32 1611} ; [ DW_TAG_subprogram ]
!751 = metadata !{i32 786453, i32 0, metadata !"", i32 0, i32 0, i64 0, i64 0, i64 0, i32 0, null, metadata !752, i32 0, i32 0} ; [ DW_TAG_subroutine_type ]
!752 = metadata !{metadata !737, metadata !663, metadata !117}
!753 = metadata !{i32 786478, i32 0, metadata !647, metadata !"operator=", metadata !"operator=", metadata !"_ZN11ap_int_baseILi16ELb0ELb1EEaSEs", metadata !70, i32 1612, metadata !754, i1 false, i1 false, i32 0, i32 0, null, i32 256, i1 false, null, null, i32 0, metadata !82, i32 1612} ; [ DW_TAG_subprogram ]
!754 = metadata !{i32 786453, i32 0, metadata !"", i32 0, i32 0, i64 0, i64 0, i64 0, i32 0, null, metadata !755, i32 0, i32 0} ; [ DW_TAG_subroutine_type ]
!755 = metadata !{metadata !737, metadata !663, metadata !121}
!756 = metadata !{i32 786478, i32 0, metadata !647, metadata !"operator=", metadata !"operator=", metadata !"_ZN11ap_int_baseILi16ELb0ELb1EEaSEt", metadata !70, i32 1613, metadata !757, i1 false, i1 false, i32 0, i32 0, null, i32 256, i1 false, null, null, i32 0, metadata !82, i32 1613} ; [ DW_TAG_subprogram ]
!757 = metadata !{i32 786453, i32 0, metadata !"", i32 0, i32 0, i64 0, i64 0, i64 0, i32 0, null, metadata !758, i32 0, i32 0} ; [ DW_TAG_subroutine_type ]
!758 = metadata !{metadata !737, metadata !663, metadata !125}
!759 = metadata !{i32 786478, i32 0, metadata !647, metadata !"operator=", metadata !"operator=", metadata !"_ZN11ap_int_baseILi16ELb0ELb1EEaSEi", metadata !70, i32 1614, metadata !760, i1 false, i1 false, i32 0, i32 0, null, i32 256, i1 false, null, null, i32 0, metadata !82, i32 1614} ; [ DW_TAG_subprogram ]
!760 = metadata !{i32 786453, i32 0, metadata !"", i32 0, i32 0, i64 0, i64 0, i64 0, i32 0, null, metadata !761, i32 0, i32 0} ; [ DW_TAG_subroutine_type ]
!761 = metadata !{metadata !737, metadata !663, metadata !86}
!762 = metadata !{i32 786478, i32 0, metadata !647, metadata !"operator=", metadata !"operator=", metadata !"_ZN11ap_int_baseILi16ELb0ELb1EEaSEj", metadata !70, i32 1615, metadata !763, i1 false, i1 false, i32 0, i32 0, null, i32 256, i1 false, null, null, i32 0, metadata !82, i32 1615} ; [ DW_TAG_subprogram ]
!763 = metadata !{i32 786453, i32 0, metadata !"", i32 0, i32 0, i64 0, i64 0, i64 0, i32 0, null, metadata !764, i32 0, i32 0} ; [ DW_TAG_subroutine_type ]
!764 = metadata !{metadata !737, metadata !663, metadata !132}
!765 = metadata !{i32 786478, i32 0, metadata !647, metadata !"operator=", metadata !"operator=", metadata !"_ZN11ap_int_baseILi16ELb0ELb1EEaSEx", metadata !70, i32 1616, metadata !766, i1 false, i1 false, i32 0, i32 0, null, i32 256, i1 false, null, null, i32 0, metadata !82, i32 1616} ; [ DW_TAG_subprogram ]
!766 = metadata !{i32 786453, i32 0, metadata !"", i32 0, i32 0, i64 0, i64 0, i64 0, i32 0, null, metadata !767, i32 0, i32 0} ; [ DW_TAG_subroutine_type ]
!767 = metadata !{metadata !737, metadata !663, metadata !144}
!768 = metadata !{i32 786478, i32 0, metadata !647, metadata !"operator=", metadata !"operator=", metadata !"_ZN11ap_int_baseILi16ELb0ELb1EEaSEy", metadata !70, i32 1617, metadata !769, i1 false, i1 false, i32 0, i32 0, null, i32 256, i1 false, null, null, i32 0, metadata !82, i32 1617} ; [ DW_TAG_subprogram ]
!769 = metadata !{i32 786453, i32 0, metadata !"", i32 0, i32 0, i64 0, i64 0, i64 0, i32 0, null, metadata !770, i32 0, i32 0} ; [ DW_TAG_subroutine_type ]
!770 = metadata !{metadata !737, metadata !663, metadata !149}
!771 = metadata !{i32 786478, i32 0, metadata !647, metadata !"operator unsigned short", metadata !"operator unsigned short", metadata !"_ZNK11ap_int_baseILi16ELb0ELb1EEcvtEv", metadata !70, i32 1655, metadata !772, i1 false, i1 false, i32 0, i32 0, null, i32 256, i1 false, null, null, i32 0, metadata !82, i32 1655} ; [ DW_TAG_subprogram ]
!772 = metadata !{i32 786453, i32 0, metadata !"", i32 0, i32 0, i64 0, i64 0, i64 0, i32 0, null, metadata !773, i32 0, i32 0} ; [ DW_TAG_subroutine_type ]
!773 = metadata !{metadata !774, metadata !778}
!774 = metadata !{i32 786454, metadata !647, metadata !"RetType", metadata !70, i32 1403, i64 0, i64 0, i64 0, i32 0, metadata !775} ; [ DW_TAG_typedef ]
!775 = metadata !{i32 786454, metadata !776, metadata !"Type", metadata !70, i32 1377, i64 0, i64 0, i64 0, i32 0, metadata !125} ; [ DW_TAG_typedef ]
!776 = metadata !{i32 786434, null, metadata !"retval<2, false>", metadata !70, i32 1376, i64 8, i64 8, i32 0, i32 0, null, metadata !227, i32 0, null, metadata !777} ; [ DW_TAG_class_type ]
!777 = metadata !{metadata !434, metadata !87}
!778 = metadata !{i32 786447, i32 0, metadata !"", i32 0, i32 0, i64 32, i64 32, i64 0, i32 64, metadata !646} ; [ DW_TAG_pointer_type ]
!779 = metadata !{i32 786478, i32 0, metadata !647, metadata !"to_bool", metadata !"to_bool", metadata !"_ZNK11ap_int_baseILi16ELb0ELb1EE7to_boolEv", metadata !70, i32 1661, metadata !780, i1 false, i1 false, i32 0, i32 0, null, i32 256, i1 false, null, null, i32 0, metadata !82, i32 1661} ; [ DW_TAG_subprogram ]
!780 = metadata !{i32 786453, i32 0, metadata !"", i32 0, i32 0, i64 0, i64 0, i64 0, i32 0, null, metadata !781, i32 0, i32 0} ; [ DW_TAG_subroutine_type ]
!781 = metadata !{metadata !88, metadata !778}
!782 = metadata !{i32 786478, i32 0, metadata !647, metadata !"to_uchar", metadata !"to_uchar", metadata !"_ZNK11ap_int_baseILi16ELb0ELb1EE8to_ucharEv", metadata !70, i32 1662, metadata !783, i1 false, i1 false, i32 0, i32 0, null, i32 256, i1 false, null, null, i32 0, metadata !82, i32 1662} ; [ DW_TAG_subprogram ]
!783 = metadata !{i32 786453, i32 0, metadata !"", i32 0, i32 0, i64 0, i64 0, i64 0, i32 0, null, metadata !784, i32 0, i32 0} ; [ DW_TAG_subroutine_type ]
!784 = metadata !{metadata !117, metadata !778}
!785 = metadata !{i32 786478, i32 0, metadata !647, metadata !"to_char", metadata !"to_char", metadata !"_ZNK11ap_int_baseILi16ELb0ELb1EE7to_charEv", metadata !70, i32 1663, metadata !786, i1 false, i1 false, i32 0, i32 0, null, i32 256, i1 false, null, null, i32 0, metadata !82, i32 1663} ; [ DW_TAG_subprogram ]
!786 = metadata !{i32 786453, i32 0, metadata !"", i32 0, i32 0, i64 0, i64 0, i64 0, i32 0, null, metadata !787, i32 0, i32 0} ; [ DW_TAG_subroutine_type ]
!787 = metadata !{metadata !113, metadata !778}
!788 = metadata !{i32 786478, i32 0, metadata !647, metadata !"to_ushort", metadata !"to_ushort", metadata !"_ZNK11ap_int_baseILi16ELb0ELb1EE9to_ushortEv", metadata !70, i32 1664, metadata !789, i1 false, i1 false, i32 0, i32 0, null, i32 256, i1 false, null, null, i32 0, metadata !82, i32 1664} ; [ DW_TAG_subprogram ]
!789 = metadata !{i32 786453, i32 0, metadata !"", i32 0, i32 0, i64 0, i64 0, i64 0, i32 0, null, metadata !790, i32 0, i32 0} ; [ DW_TAG_subroutine_type ]
!790 = metadata !{metadata !125, metadata !778}
!791 = metadata !{i32 786478, i32 0, metadata !647, metadata !"to_short", metadata !"to_short", metadata !"_ZNK11ap_int_baseILi16ELb0ELb1EE8to_shortEv", metadata !70, i32 1665, metadata !792, i1 false, i1 false, i32 0, i32 0, null, i32 256, i1 false, null, null, i32 0, metadata !82, i32 1665} ; [ DW_TAG_subprogram ]
!792 = metadata !{i32 786453, i32 0, metadata !"", i32 0, i32 0, i64 0, i64 0, i64 0, i32 0, null, metadata !793, i32 0, i32 0} ; [ DW_TAG_subroutine_type ]
!793 = metadata !{metadata !121, metadata !778}
!794 = metadata !{i32 786478, i32 0, metadata !647, metadata !"to_int", metadata !"to_int", metadata !"_ZNK11ap_int_baseILi16ELb0ELb1EE6to_intEv", metadata !70, i32 1666, metadata !795, i1 false, i1 false, i32 0, i32 0, null, i32 256, i1 false, null, null, i32 0, metadata !82, i32 1666} ; [ DW_TAG_subprogram ]
!795 = metadata !{i32 786453, i32 0, metadata !"", i32 0, i32 0, i64 0, i64 0, i64 0, i32 0, null, metadata !796, i32 0, i32 0} ; [ DW_TAG_subroutine_type ]
!796 = metadata !{metadata !86, metadata !778}
!797 = metadata !{i32 786478, i32 0, metadata !647, metadata !"to_uint", metadata !"to_uint", metadata !"_ZNK11ap_int_baseILi16ELb0ELb1EE7to_uintEv", metadata !70, i32 1667, metadata !798, i1 false, i1 false, i32 0, i32 0, null, i32 256, i1 false, null, null, i32 0, metadata !82, i32 1667} ; [ DW_TAG_subprogram ]
!798 = metadata !{i32 786453, i32 0, metadata !"", i32 0, i32 0, i64 0, i64 0, i64 0, i32 0, null, metadata !799, i32 0, i32 0} ; [ DW_TAG_subroutine_type ]
!799 = metadata !{metadata !132, metadata !778}
!800 = metadata !{i32 786478, i32 0, metadata !647, metadata !"to_long", metadata !"to_long", metadata !"_ZNK11ap_int_baseILi16ELb0ELb1EE7to_longEv", metadata !70, i32 1668, metadata !801, i1 false, i1 false, i32 0, i32 0, null, i32 256, i1 false, null, null, i32 0, metadata !82, i32 1668} ; [ DW_TAG_subprogram ]
!801 = metadata !{i32 786453, i32 0, metadata !"", i32 0, i32 0, i64 0, i64 0, i64 0, i32 0, null, metadata !802, i32 0, i32 0} ; [ DW_TAG_subroutine_type ]
!802 = metadata !{metadata !136, metadata !778}
!803 = metadata !{i32 786478, i32 0, metadata !647, metadata !"to_ulong", metadata !"to_ulong", metadata !"_ZNK11ap_int_baseILi16ELb0ELb1EE8to_ulongEv", metadata !70, i32 1669, metadata !804, i1 false, i1 false, i32 0, i32 0, null, i32 256, i1 false, null, null, i32 0, metadata !82, i32 1669} ; [ DW_TAG_subprogram ]
!804 = metadata !{i32 786453, i32 0, metadata !"", i32 0, i32 0, i64 0, i64 0, i64 0, i32 0, null, metadata !805, i32 0, i32 0} ; [ DW_TAG_subroutine_type ]
!805 = metadata !{metadata !140, metadata !778}
!806 = metadata !{i32 786478, i32 0, metadata !647, metadata !"to_int64", metadata !"to_int64", metadata !"_ZNK11ap_int_baseILi16ELb0ELb1EE8to_int64Ev", metadata !70, i32 1670, metadata !807, i1 false, i1 false, i32 0, i32 0, null, i32 256, i1 false, null, null, i32 0, metadata !82, i32 1670} ; [ DW_TAG_subprogram ]
!807 = metadata !{i32 786453, i32 0, metadata !"", i32 0, i32 0, i64 0, i64 0, i64 0, i32 0, null, metadata !808, i32 0, i32 0} ; [ DW_TAG_subroutine_type ]
!808 = metadata !{metadata !144, metadata !778}
!809 = metadata !{i32 786478, i32 0, metadata !647, metadata !"to_uint64", metadata !"to_uint64", metadata !"_ZNK11ap_int_baseILi16ELb0ELb1EE9to_uint64Ev", metadata !70, i32 1671, metadata !810, i1 false, i1 false, i32 0, i32 0, null, i32 256, i1 false, null, null, i32 0, metadata !82, i32 1671} ; [ DW_TAG_subprogram ]
!810 = metadata !{i32 786453, i32 0, metadata !"", i32 0, i32 0, i64 0, i64 0, i64 0, i32 0, null, metadata !811, i32 0, i32 0} ; [ DW_TAG_subroutine_type ]
!811 = metadata !{metadata !149, metadata !778}
!812 = metadata !{i32 786478, i32 0, metadata !647, metadata !"to_double", metadata !"to_double", metadata !"_ZNK11ap_int_baseILi16ELb0ELb1EE9to_doubleEv", metadata !70, i32 1672, metadata !813, i1 false, i1 false, i32 0, i32 0, null, i32 256, i1 false, null, null, i32 0, metadata !82, i32 1672} ; [ DW_TAG_subprogram ]
!813 = metadata !{i32 786453, i32 0, metadata !"", i32 0, i32 0, i64 0, i64 0, i64 0, i32 0, null, metadata !814, i32 0, i32 0} ; [ DW_TAG_subroutine_type ]
!814 = metadata !{metadata !163, metadata !778}
!815 = metadata !{i32 786478, i32 0, metadata !647, metadata !"length", metadata !"length", metadata !"_ZNK11ap_int_baseILi16ELb0ELb1EE6lengthEv", metadata !70, i32 1686, metadata !795, i1 false, i1 false, i32 0, i32 0, null, i32 256, i1 false, null, null, i32 0, metadata !82, i32 1686} ; [ DW_TAG_subprogram ]
!816 = metadata !{i32 786478, i32 0, metadata !647, metadata !"length", metadata !"length", metadata !"_ZNVK11ap_int_baseILi16ELb0ELb1EE6lengthEv", metadata !70, i32 1687, metadata !817, i1 false, i1 false, i32 0, i32 0, null, i32 256, i1 false, null, null, i32 0, metadata !82, i32 1687} ; [ DW_TAG_subprogram ]
!817 = metadata !{i32 786453, i32 0, metadata !"", i32 0, i32 0, i64 0, i64 0, i64 0, i32 0, null, metadata !818, i32 0, i32 0} ; [ DW_TAG_subroutine_type ]
!818 = metadata !{metadata !86, metadata !819}
!819 = metadata !{i32 786447, i32 0, metadata !"", i32 0, i32 0, i64 32, i64 32, i64 0, i32 64, metadata !673} ; [ DW_TAG_pointer_type ]
!820 = metadata !{i32 786478, i32 0, metadata !647, metadata !"reverse", metadata !"reverse", metadata !"_ZN11ap_int_baseILi16ELb0ELb1EE7reverseEv", metadata !70, i32 1692, metadata !821, i1 false, i1 false, i32 0, i32 0, null, i32 256, i1 false, null, null, i32 0, metadata !82, i32 1692} ; [ DW_TAG_subprogram ]
!821 = metadata !{i32 786453, i32 0, metadata !"", i32 0, i32 0, i64 0, i64 0, i64 0, i32 0, null, metadata !822, i32 0, i32 0} ; [ DW_TAG_subroutine_type ]
!822 = metadata !{metadata !737, metadata !663}
!823 = metadata !{i32 786478, i32 0, metadata !647, metadata !"iszero", metadata !"iszero", metadata !"_ZNK11ap_int_baseILi16ELb0ELb1EE6iszeroEv", metadata !70, i32 1698, metadata !780, i1 false, i1 false, i32 0, i32 0, null, i32 256, i1 false, null, null, i32 0, metadata !82, i32 1698} ; [ DW_TAG_subprogram ]
!824 = metadata !{i32 786478, i32 0, metadata !647, metadata !"is_zero", metadata !"is_zero", metadata !"_ZNK11ap_int_baseILi16ELb0ELb1EE7is_zeroEv", metadata !70, i32 1703, metadata !780, i1 false, i1 false, i32 0, i32 0, null, i32 256, i1 false, null, null, i32 0, metadata !82, i32 1703} ; [ DW_TAG_subprogram ]
!825 = metadata !{i32 786478, i32 0, metadata !647, metadata !"sign", metadata !"sign", metadata !"_ZNK11ap_int_baseILi16ELb0ELb1EE4signEv", metadata !70, i32 1708, metadata !780, i1 false, i1 false, i32 0, i32 0, null, i32 256, i1 false, null, null, i32 0, metadata !82, i32 1708} ; [ DW_TAG_subprogram ]
!826 = metadata !{i32 786478, i32 0, metadata !647, metadata !"clear", metadata !"clear", metadata !"_ZN11ap_int_baseILi16ELb0ELb1EE5clearEi", metadata !70, i32 1716, metadata !691, i1 false, i1 false, i32 0, i32 0, null, i32 256, i1 false, null, null, i32 0, metadata !82, i32 1716} ; [ DW_TAG_subprogram ]
!827 = metadata !{i32 786478, i32 0, metadata !647, metadata !"invert", metadata !"invert", metadata !"_ZN11ap_int_baseILi16ELb0ELb1EE6invertEi", metadata !70, i32 1722, metadata !691, i1 false, i1 false, i32 0, i32 0, null, i32 256, i1 false, null, null, i32 0, metadata !82, i32 1722} ; [ DW_TAG_subprogram ]
!828 = metadata !{i32 786478, i32 0, metadata !647, metadata !"test", metadata !"test", metadata !"_ZNK11ap_int_baseILi16ELb0ELb1EE4testEi", metadata !70, i32 1730, metadata !829, i1 false, i1 false, i32 0, i32 0, null, i32 256, i1 false, null, null, i32 0, metadata !82, i32 1730} ; [ DW_TAG_subprogram ]
!829 = metadata !{i32 786453, i32 0, metadata !"", i32 0, i32 0, i64 0, i64 0, i64 0, i32 0, null, metadata !830, i32 0, i32 0} ; [ DW_TAG_subroutine_type ]
!830 = metadata !{metadata !88, metadata !778, metadata !86}
!831 = metadata !{i32 786478, i32 0, metadata !647, metadata !"set", metadata !"set", metadata !"_ZN11ap_int_baseILi16ELb0ELb1EE3setEi", metadata !70, i32 1736, metadata !691, i1 false, i1 false, i32 0, i32 0, null, i32 256, i1 false, null, null, i32 0, metadata !82, i32 1736} ; [ DW_TAG_subprogram ]
!832 = metadata !{i32 786478, i32 0, metadata !647, metadata !"set", metadata !"set", metadata !"_ZN11ap_int_baseILi16ELb0ELb1EE3setEib", metadata !70, i32 1742, metadata !833, i1 false, i1 false, i32 0, i32 0, null, i32 256, i1 false, null, null, i32 0, metadata !82, i32 1742} ; [ DW_TAG_subprogram ]
!833 = metadata !{i32 786453, i32 0, metadata !"", i32 0, i32 0, i64 0, i64 0, i64 0, i32 0, null, metadata !834, i32 0, i32 0} ; [ DW_TAG_subroutine_type ]
!834 = metadata !{null, metadata !663, metadata !86, metadata !88}
!835 = metadata !{i32 786478, i32 0, metadata !647, metadata !"lrotate", metadata !"lrotate", metadata !"_ZN11ap_int_baseILi16ELb0ELb1EE7lrotateEi", metadata !70, i32 1749, metadata !691, i1 false, i1 false, i32 0, i32 0, null, i32 256, i1 false, null, null, i32 0, metadata !82, i32 1749} ; [ DW_TAG_subprogram ]
!836 = metadata !{i32 786478, i32 0, metadata !647, metadata !"rrotate", metadata !"rrotate", metadata !"_ZN11ap_int_baseILi16ELb0ELb1EE7rrotateEi", metadata !70, i32 1758, metadata !691, i1 false, i1 false, i32 0, i32 0, null, i32 256, i1 false, null, null, i32 0, metadata !82, i32 1758} ; [ DW_TAG_subprogram ]
!837 = metadata !{i32 786478, i32 0, metadata !647, metadata !"set_bit", metadata !"set_bit", metadata !"_ZN11ap_int_baseILi16ELb0ELb1EE7set_bitEib", metadata !70, i32 1766, metadata !833, i1 false, i1 false, i32 0, i32 0, null, i32 256, i1 false, null, null, i32 0, metadata !82, i32 1766} ; [ DW_TAG_subprogram ]
!838 = metadata !{i32 786478, i32 0, metadata !647, metadata !"get_bit", metadata !"get_bit", metadata !"_ZNK11ap_int_baseILi16ELb0ELb1EE7get_bitEi", metadata !70, i32 1771, metadata !829, i1 false, i1 false, i32 0, i32 0, null, i32 256, i1 false, null, null, i32 0, metadata !82, i32 1771} ; [ DW_TAG_subprogram ]
!839 = metadata !{i32 786478, i32 0, metadata !647, metadata !"b_not", metadata !"b_not", metadata !"_ZN11ap_int_baseILi16ELb0ELb1EE5b_notEv", metadata !70, i32 1776, metadata !661, i1 false, i1 false, i32 0, i32 0, null, i32 256, i1 false, null, null, i32 0, metadata !82, i32 1776} ; [ DW_TAG_subprogram ]
!840 = metadata !{i32 786478, i32 0, metadata !647, metadata !"countLeadingZeros", metadata !"countLeadingZeros", metadata !"_ZN11ap_int_baseILi16ELb0ELb1EE17countLeadingZerosEv", metadata !70, i32 1783, metadata !841, i1 false, i1 false, i32 0, i32 0, null, i32 256, i1 false, null, null, i32 0, metadata !82, i32 1783} ; [ DW_TAG_subprogram ]
!841 = metadata !{i32 786453, i32 0, metadata !"", i32 0, i32 0, i64 0, i64 0, i64 0, i32 0, null, metadata !842, i32 0, i32 0} ; [ DW_TAG_subroutine_type ]
!842 = metadata !{metadata !86, metadata !663}
!843 = metadata !{i32 786478, i32 0, metadata !647, metadata !"operator++", metadata !"operator++", metadata !"_ZN11ap_int_baseILi16ELb0ELb1EEppEv", metadata !70, i32 1840, metadata !821, i1 false, i1 false, i32 0, i32 0, null, i32 256, i1 false, null, null, i32 0, metadata !82, i32 1840} ; [ DW_TAG_subprogram ]
!844 = metadata !{i32 786478, i32 0, metadata !647, metadata !"operator--", metadata !"operator--", metadata !"_ZN11ap_int_baseILi16ELb0ELb1EEmmEv", metadata !70, i32 1844, metadata !821, i1 false, i1 false, i32 0, i32 0, null, i32 256, i1 false, null, null, i32 0, metadata !82, i32 1844} ; [ DW_TAG_subprogram ]
!845 = metadata !{i32 786478, i32 0, metadata !647, metadata !"operator++", metadata !"operator++", metadata !"_ZN11ap_int_baseILi16ELb0ELb1EEppEi", metadata !70, i32 1852, metadata !846, i1 false, i1 false, i32 0, i32 0, null, i32 256, i1 false, null, null, i32 0, metadata !82, i32 1852} ; [ DW_TAG_subprogram ]
!846 = metadata !{i32 786453, i32 0, metadata !"", i32 0, i32 0, i64 0, i64 0, i64 0, i32 0, null, metadata !847, i32 0, i32 0} ; [ DW_TAG_subroutine_type ]
!847 = metadata !{metadata !646, metadata !663, metadata !86}
!848 = metadata !{i32 786478, i32 0, metadata !647, metadata !"operator--", metadata !"operator--", metadata !"_ZN11ap_int_baseILi16ELb0ELb1EEmmEi", metadata !70, i32 1857, metadata !846, i1 false, i1 false, i32 0, i32 0, null, i32 256, i1 false, null, null, i32 0, metadata !82, i32 1857} ; [ DW_TAG_subprogram ]
!849 = metadata !{i32 786478, i32 0, metadata !647, metadata !"operator+", metadata !"operator+", metadata !"_ZNK11ap_int_baseILi16ELb0ELb1EEpsEv", metadata !70, i32 1866, metadata !850, i1 false, i1 false, i32 0, i32 0, null, i32 256, i1 false, null, null, i32 0, metadata !82, i32 1866} ; [ DW_TAG_subprogram ]
!850 = metadata !{i32 786453, i32 0, metadata !"", i32 0, i32 0, i64 0, i64 0, i64 0, i32 0, null, metadata !851, i32 0, i32 0} ; [ DW_TAG_subroutine_type ]
!851 = metadata !{metadata !647, metadata !778}
!852 = metadata !{i32 786478, i32 0, metadata !647, metadata !"operator!", metadata !"operator!", metadata !"_ZNK11ap_int_baseILi16ELb0ELb1EEntEv", metadata !70, i32 1872, metadata !780, i1 false, i1 false, i32 0, i32 0, null, i32 256, i1 false, null, null, i32 0, metadata !82, i32 1872} ; [ DW_TAG_subprogram ]
!853 = metadata !{i32 786478, i32 0, metadata !647, metadata !"operator-", metadata !"operator-", metadata !"_ZNK11ap_int_baseILi16ELb0ELb1EEngEv", metadata !70, i32 1877, metadata !854, i1 false, i1 false, i32 0, i32 0, null, i32 256, i1 false, null, null, i32 0, metadata !82, i32 1877} ; [ DW_TAG_subprogram ]
!854 = metadata !{i32 786453, i32 0, metadata !"", i32 0, i32 0, i64 0, i64 0, i64 0, i32 0, null, metadata !855, i32 0, i32 0} ; [ DW_TAG_subroutine_type ]
!855 = metadata !{metadata !856, metadata !778}
!856 = metadata !{i32 786434, null, metadata !"ap_int_base<17, true, true>", metadata !70, i32 1398, i64 32, i64 32, i32 0, i32 0, null, metadata !857, i32 0, null, metadata !1135} ; [ DW_TAG_class_type ]
!857 = metadata !{metadata !858, metadata !869, metadata !873, metadata !876, metadata !879, metadata !882, metadata !885, metadata !888, metadata !891, metadata !894, metadata !897, metadata !900, metadata !903, metadata !906, metadata !909, metadata !912, metadata !915, metadata !918, metadata !921, metadata !926, metadata !931, metadata !936, metadata !937, metadata !941, metadata !944, metadata !947, metadata !950, metadata !953, metadata !956, metadata !959, metadata !962, metadata !965, metadata !968, metadata !971, metadata !974, metadata !983, metadata !986, metadata !989, metadata !992, metadata !995, metadata !998, metadata !1001, metadata !1004, metadata !1007, metadata !1010, metadata !1013, metadata !1016, metadata !1019, metadata !1020, metadata !1024, metadata !1027, metadata !1028, metadata !1029, metadata !1030, metadata !1031, metadata !1032, metadata !1035, metadata !1036, metadata !1039, metadata !1040, metadata !1041, metadata !1042, metadata !1043, metadata !1044, metadata !1047, metadata !1048, metadata !1049, metadata !1052, metadata !1053, metadata !1056, metadata !1057, metadata !1061, metadata !1065, metadata !1066, metadata !1069, metadata !1070, metadata !1109, metadata !1110, metadata !1111, metadata !1112, metadata !1115, metadata !1116, metadata !1117, metadata !1118, metadata !1119, metadata !1120, metadata !1121, metadata !1122, metadata !1123, metadata !1124, metadata !1125, metadata !1126, metadata !1129, metadata !1132}
!858 = metadata !{i32 786460, metadata !856, null, metadata !70, i32 0, i64 0, i64 0, i64 0, i32 0, metadata !859} ; [ DW_TAG_inheritance ]
!859 = metadata !{i32 786434, null, metadata !"ssdm_int<17 + 1024 * 0, true>", metadata !74, i32 19, i64 32, i64 32, i32 0, i32 0, null, metadata !860, i32 0, null, metadata !867} ; [ DW_TAG_class_type ]
!860 = metadata !{metadata !861, metadata !863}
!861 = metadata !{i32 786445, metadata !859, metadata !"V", metadata !74, i32 19, i64 17, i64 32, i64 0, i32 0, metadata !862} ; [ DW_TAG_member ]
!862 = metadata !{i32 786468, null, metadata !"int17", null, i32 0, i64 17, i64 32, i64 0, i32 0, i32 5} ; [ DW_TAG_base_type ]
!863 = metadata !{i32 786478, i32 0, metadata !859, metadata !"ssdm_int", metadata !"ssdm_int", metadata !"", metadata !74, i32 19, metadata !864, i1 false, i1 false, i32 0, i32 0, null, i32 256, i1 false, null, null, i32 0, metadata !82, i32 19} ; [ DW_TAG_subprogram ]
!864 = metadata !{i32 786453, i32 0, metadata !"", i32 0, i32 0, i64 0, i64 0, i64 0, i32 0, null, metadata !865, i32 0, i32 0} ; [ DW_TAG_subroutine_type ]
!865 = metadata !{null, metadata !866}
!866 = metadata !{i32 786447, i32 0, metadata !"", i32 0, i32 0, i64 32, i64 32, i64 0, i32 64, metadata !859} ; [ DW_TAG_pointer_type ]
!867 = metadata !{metadata !868, metadata !321}
!868 = metadata !{i32 786480, null, metadata !"_AP_N", metadata !86, i64 17, null, i32 0, i32 0} ; [ DW_TAG_template_value_parameter ]
!869 = metadata !{i32 786478, i32 0, metadata !856, metadata !"ap_int_base", metadata !"ap_int_base", metadata !"", metadata !70, i32 1439, metadata !870, i1 false, i1 false, i32 0, i32 0, null, i32 256, i1 false, null, null, i32 0, metadata !82, i32 1439} ; [ DW_TAG_subprogram ]
!870 = metadata !{i32 786453, i32 0, metadata !"", i32 0, i32 0, i64 0, i64 0, i64 0, i32 0, null, metadata !871, i32 0, i32 0} ; [ DW_TAG_subroutine_type ]
!871 = metadata !{null, metadata !872}
!872 = metadata !{i32 786447, i32 0, metadata !"", i32 0, i32 0, i64 32, i64 32, i64 0, i32 64, metadata !856} ; [ DW_TAG_pointer_type ]
!873 = metadata !{i32 786478, i32 0, metadata !856, metadata !"ap_int_base", metadata !"ap_int_base", metadata !"", metadata !70, i32 1461, metadata !874, i1 false, i1 false, i32 0, i32 0, null, i32 384, i1 false, null, null, i32 0, metadata !82, i32 1461} ; [ DW_TAG_subprogram ]
!874 = metadata !{i32 786453, i32 0, metadata !"", i32 0, i32 0, i64 0, i64 0, i64 0, i32 0, null, metadata !875, i32 0, i32 0} ; [ DW_TAG_subroutine_type ]
!875 = metadata !{null, metadata !872, metadata !88}
!876 = metadata !{i32 786478, i32 0, metadata !856, metadata !"ap_int_base", metadata !"ap_int_base", metadata !"", metadata !70, i32 1462, metadata !877, i1 false, i1 false, i32 0, i32 0, null, i32 384, i1 false, null, null, i32 0, metadata !82, i32 1462} ; [ DW_TAG_subprogram ]
!877 = metadata !{i32 786453, i32 0, metadata !"", i32 0, i32 0, i64 0, i64 0, i64 0, i32 0, null, metadata !878, i32 0, i32 0} ; [ DW_TAG_subroutine_type ]
!878 = metadata !{null, metadata !872, metadata !113}
!879 = metadata !{i32 786478, i32 0, metadata !856, metadata !"ap_int_base", metadata !"ap_int_base", metadata !"", metadata !70, i32 1463, metadata !880, i1 false, i1 false, i32 0, i32 0, null, i32 384, i1 false, null, null, i32 0, metadata !82, i32 1463} ; [ DW_TAG_subprogram ]
!880 = metadata !{i32 786453, i32 0, metadata !"", i32 0, i32 0, i64 0, i64 0, i64 0, i32 0, null, metadata !881, i32 0, i32 0} ; [ DW_TAG_subroutine_type ]
!881 = metadata !{null, metadata !872, metadata !117}
!882 = metadata !{i32 786478, i32 0, metadata !856, metadata !"ap_int_base", metadata !"ap_int_base", metadata !"", metadata !70, i32 1464, metadata !883, i1 false, i1 false, i32 0, i32 0, null, i32 384, i1 false, null, null, i32 0, metadata !82, i32 1464} ; [ DW_TAG_subprogram ]
!883 = metadata !{i32 786453, i32 0, metadata !"", i32 0, i32 0, i64 0, i64 0, i64 0, i32 0, null, metadata !884, i32 0, i32 0} ; [ DW_TAG_subroutine_type ]
!884 = metadata !{null, metadata !872, metadata !121}
!885 = metadata !{i32 786478, i32 0, metadata !856, metadata !"ap_int_base", metadata !"ap_int_base", metadata !"", metadata !70, i32 1465, metadata !886, i1 false, i1 false, i32 0, i32 0, null, i32 384, i1 false, null, null, i32 0, metadata !82, i32 1465} ; [ DW_TAG_subprogram ]
!886 = metadata !{i32 786453, i32 0, metadata !"", i32 0, i32 0, i64 0, i64 0, i64 0, i32 0, null, metadata !887, i32 0, i32 0} ; [ DW_TAG_subroutine_type ]
!887 = metadata !{null, metadata !872, metadata !125}
!888 = metadata !{i32 786478, i32 0, metadata !856, metadata !"ap_int_base", metadata !"ap_int_base", metadata !"", metadata !70, i32 1466, metadata !889, i1 false, i1 false, i32 0, i32 0, null, i32 384, i1 false, null, null, i32 0, metadata !82, i32 1466} ; [ DW_TAG_subprogram ]
!889 = metadata !{i32 786453, i32 0, metadata !"", i32 0, i32 0, i64 0, i64 0, i64 0, i32 0, null, metadata !890, i32 0, i32 0} ; [ DW_TAG_subroutine_type ]
!890 = metadata !{null, metadata !872, metadata !86}
!891 = metadata !{i32 786478, i32 0, metadata !856, metadata !"ap_int_base", metadata !"ap_int_base", metadata !"", metadata !70, i32 1467, metadata !892, i1 false, i1 false, i32 0, i32 0, null, i32 384, i1 false, null, null, i32 0, metadata !82, i32 1467} ; [ DW_TAG_subprogram ]
!892 = metadata !{i32 786453, i32 0, metadata !"", i32 0, i32 0, i64 0, i64 0, i64 0, i32 0, null, metadata !893, i32 0, i32 0} ; [ DW_TAG_subroutine_type ]
!893 = metadata !{null, metadata !872, metadata !132}
!894 = metadata !{i32 786478, i32 0, metadata !856, metadata !"ap_int_base", metadata !"ap_int_base", metadata !"", metadata !70, i32 1468, metadata !895, i1 false, i1 false, i32 0, i32 0, null, i32 384, i1 false, null, null, i32 0, metadata !82, i32 1468} ; [ DW_TAG_subprogram ]
!895 = metadata !{i32 786453, i32 0, metadata !"", i32 0, i32 0, i64 0, i64 0, i64 0, i32 0, null, metadata !896, i32 0, i32 0} ; [ DW_TAG_subroutine_type ]
!896 = metadata !{null, metadata !872, metadata !136}
!897 = metadata !{i32 786478, i32 0, metadata !856, metadata !"ap_int_base", metadata !"ap_int_base", metadata !"", metadata !70, i32 1469, metadata !898, i1 false, i1 false, i32 0, i32 0, null, i32 384, i1 false, null, null, i32 0, metadata !82, i32 1469} ; [ DW_TAG_subprogram ]
!898 = metadata !{i32 786453, i32 0, metadata !"", i32 0, i32 0, i64 0, i64 0, i64 0, i32 0, null, metadata !899, i32 0, i32 0} ; [ DW_TAG_subroutine_type ]
!899 = metadata !{null, metadata !872, metadata !140}
!900 = metadata !{i32 786478, i32 0, metadata !856, metadata !"ap_int_base", metadata !"ap_int_base", metadata !"", metadata !70, i32 1470, metadata !901, i1 false, i1 false, i32 0, i32 0, null, i32 384, i1 false, null, null, i32 0, metadata !82, i32 1470} ; [ DW_TAG_subprogram ]
!901 = metadata !{i32 786453, i32 0, metadata !"", i32 0, i32 0, i64 0, i64 0, i64 0, i32 0, null, metadata !902, i32 0, i32 0} ; [ DW_TAG_subroutine_type ]
!902 = metadata !{null, metadata !872, metadata !144}
!903 = metadata !{i32 786478, i32 0, metadata !856, metadata !"ap_int_base", metadata !"ap_int_base", metadata !"", metadata !70, i32 1471, metadata !904, i1 false, i1 false, i32 0, i32 0, null, i32 384, i1 false, null, null, i32 0, metadata !82, i32 1471} ; [ DW_TAG_subprogram ]
!904 = metadata !{i32 786453, i32 0, metadata !"", i32 0, i32 0, i64 0, i64 0, i64 0, i32 0, null, metadata !905, i32 0, i32 0} ; [ DW_TAG_subroutine_type ]
!905 = metadata !{null, metadata !872, metadata !149}
!906 = metadata !{i32 786478, i32 0, metadata !856, metadata !"ap_int_base", metadata !"ap_int_base", metadata !"", metadata !70, i32 1472, metadata !907, i1 false, i1 false, i32 0, i32 0, null, i32 384, i1 false, null, null, i32 0, metadata !82, i32 1472} ; [ DW_TAG_subprogram ]
!907 = metadata !{i32 786453, i32 0, metadata !"", i32 0, i32 0, i64 0, i64 0, i64 0, i32 0, null, metadata !908, i32 0, i32 0} ; [ DW_TAG_subroutine_type ]
!908 = metadata !{null, metadata !872, metadata !154}
!909 = metadata !{i32 786478, i32 0, metadata !856, metadata !"ap_int_base", metadata !"ap_int_base", metadata !"", metadata !70, i32 1473, metadata !910, i1 false, i1 false, i32 0, i32 0, null, i32 384, i1 false, null, null, i32 0, metadata !82, i32 1473} ; [ DW_TAG_subprogram ]
!910 = metadata !{i32 786453, i32 0, metadata !"", i32 0, i32 0, i64 0, i64 0, i64 0, i32 0, null, metadata !911, i32 0, i32 0} ; [ DW_TAG_subroutine_type ]
!911 = metadata !{null, metadata !872, metadata !159}
!912 = metadata !{i32 786478, i32 0, metadata !856, metadata !"ap_int_base", metadata !"ap_int_base", metadata !"", metadata !70, i32 1474, metadata !913, i1 false, i1 false, i32 0, i32 0, null, i32 384, i1 false, null, null, i32 0, metadata !82, i32 1474} ; [ DW_TAG_subprogram ]
!913 = metadata !{i32 786453, i32 0, metadata !"", i32 0, i32 0, i64 0, i64 0, i64 0, i32 0, null, metadata !914, i32 0, i32 0} ; [ DW_TAG_subroutine_type ]
!914 = metadata !{null, metadata !872, metadata !163}
!915 = metadata !{i32 786478, i32 0, metadata !856, metadata !"ap_int_base", metadata !"ap_int_base", metadata !"", metadata !70, i32 1501, metadata !916, i1 false, i1 false, i32 0, i32 0, null, i32 256, i1 false, null, null, i32 0, metadata !82, i32 1501} ; [ DW_TAG_subprogram ]
!916 = metadata !{i32 786453, i32 0, metadata !"", i32 0, i32 0, i64 0, i64 0, i64 0, i32 0, null, metadata !917, i32 0, i32 0} ; [ DW_TAG_subroutine_type ]
!917 = metadata !{null, metadata !872, metadata !167}
!918 = metadata !{i32 786478, i32 0, metadata !856, metadata !"ap_int_base", metadata !"ap_int_base", metadata !"", metadata !70, i32 1508, metadata !919, i1 false, i1 false, i32 0, i32 0, null, i32 256, i1 false, null, null, i32 0, metadata !82, i32 1508} ; [ DW_TAG_subprogram ]
!919 = metadata !{i32 786453, i32 0, metadata !"", i32 0, i32 0, i64 0, i64 0, i64 0, i32 0, null, metadata !920, i32 0, i32 0} ; [ DW_TAG_subroutine_type ]
!920 = metadata !{null, metadata !872, metadata !167, metadata !113}
!921 = metadata !{i32 786478, i32 0, metadata !856, metadata !"read", metadata !"read", metadata !"_ZNV11ap_int_baseILi17ELb1ELb1EE4readEv", metadata !70, i32 1529, metadata !922, i1 false, i1 false, i32 0, i32 0, null, i32 256, i1 false, null, null, i32 0, metadata !82, i32 1529} ; [ DW_TAG_subprogram ]
!922 = metadata !{i32 786453, i32 0, metadata !"", i32 0, i32 0, i64 0, i64 0, i64 0, i32 0, null, metadata !923, i32 0, i32 0} ; [ DW_TAG_subroutine_type ]
!923 = metadata !{metadata !856, metadata !924}
!924 = metadata !{i32 786447, i32 0, metadata !"", i32 0, i32 0, i64 32, i64 32, i64 0, i32 64, metadata !925} ; [ DW_TAG_pointer_type ]
!925 = metadata !{i32 786485, null, metadata !"", null, i32 0, i64 0, i64 0, i64 0, i32 0, metadata !856} ; [ DW_TAG_volatile_type ]
!926 = metadata !{i32 786478, i32 0, metadata !856, metadata !"write", metadata !"write", metadata !"_ZNV11ap_int_baseILi17ELb1ELb1EE5writeERKS0_", metadata !70, i32 1535, metadata !927, i1 false, i1 false, i32 0, i32 0, null, i32 256, i1 false, null, null, i32 0, metadata !82, i32 1535} ; [ DW_TAG_subprogram ]
!927 = metadata !{i32 786453, i32 0, metadata !"", i32 0, i32 0, i64 0, i64 0, i64 0, i32 0, null, metadata !928, i32 0, i32 0} ; [ DW_TAG_subroutine_type ]
!928 = metadata !{null, metadata !924, metadata !929}
!929 = metadata !{i32 786448, null, null, null, i32 0, i64 0, i64 0, i64 0, i32 0, metadata !930} ; [ DW_TAG_reference_type ]
!930 = metadata !{i32 786470, null, metadata !"", null, i32 0, i64 0, i64 0, i64 0, i32 0, metadata !856} ; [ DW_TAG_const_type ]
!931 = metadata !{i32 786478, i32 0, metadata !856, metadata !"operator=", metadata !"operator=", metadata !"_ZNV11ap_int_baseILi17ELb1ELb1EEaSERVKS0_", metadata !70, i32 1547, metadata !932, i1 false, i1 false, i32 0, i32 0, null, i32 256, i1 false, null, null, i32 0, metadata !82, i32 1547} ; [ DW_TAG_subprogram ]
!932 = metadata !{i32 786453, i32 0, metadata !"", i32 0, i32 0, i64 0, i64 0, i64 0, i32 0, null, metadata !933, i32 0, i32 0} ; [ DW_TAG_subroutine_type ]
!933 = metadata !{null, metadata !924, metadata !934}
!934 = metadata !{i32 786448, null, null, null, i32 0, i64 0, i64 0, i64 0, i32 0, metadata !935} ; [ DW_TAG_reference_type ]
!935 = metadata !{i32 786470, null, metadata !"", null, i32 0, i64 0, i64 0, i64 0, i32 0, metadata !925} ; [ DW_TAG_const_type ]
!936 = metadata !{i32 786478, i32 0, metadata !856, metadata !"operator=", metadata !"operator=", metadata !"_ZNV11ap_int_baseILi17ELb1ELb1EEaSERKS0_", metadata !70, i32 1556, metadata !927, i1 false, i1 false, i32 0, i32 0, null, i32 256, i1 false, null, null, i32 0, metadata !82, i32 1556} ; [ DW_TAG_subprogram ]
!937 = metadata !{i32 786478, i32 0, metadata !856, metadata !"operator=", metadata !"operator=", metadata !"_ZN11ap_int_baseILi17ELb1ELb1EEaSERVKS0_", metadata !70, i32 1579, metadata !938, i1 false, i1 false, i32 0, i32 0, null, i32 256, i1 false, null, null, i32 0, metadata !82, i32 1579} ; [ DW_TAG_subprogram ]
!938 = metadata !{i32 786453, i32 0, metadata !"", i32 0, i32 0, i64 0, i64 0, i64 0, i32 0, null, metadata !939, i32 0, i32 0} ; [ DW_TAG_subroutine_type ]
!939 = metadata !{metadata !940, metadata !872, metadata !934}
!940 = metadata !{i32 786448, null, null, null, i32 0, i64 0, i64 0, i64 0, i32 0, metadata !856} ; [ DW_TAG_reference_type ]
!941 = metadata !{i32 786478, i32 0, metadata !856, metadata !"operator=", metadata !"operator=", metadata !"_ZN11ap_int_baseILi17ELb1ELb1EEaSERKS0_", metadata !70, i32 1584, metadata !942, i1 false, i1 false, i32 0, i32 0, null, i32 256, i1 false, null, null, i32 0, metadata !82, i32 1584} ; [ DW_TAG_subprogram ]
!942 = metadata !{i32 786453, i32 0, metadata !"", i32 0, i32 0, i64 0, i64 0, i64 0, i32 0, null, metadata !943, i32 0, i32 0} ; [ DW_TAG_subroutine_type ]
!943 = metadata !{metadata !940, metadata !872, metadata !929}
!944 = metadata !{i32 786478, i32 0, metadata !856, metadata !"operator=", metadata !"operator=", metadata !"_ZN11ap_int_baseILi17ELb1ELb1EEaSEPKc", metadata !70, i32 1588, metadata !945, i1 false, i1 false, i32 0, i32 0, null, i32 256, i1 false, null, null, i32 0, metadata !82, i32 1588} ; [ DW_TAG_subprogram ]
!945 = metadata !{i32 786453, i32 0, metadata !"", i32 0, i32 0, i64 0, i64 0, i64 0, i32 0, null, metadata !946, i32 0, i32 0} ; [ DW_TAG_subroutine_type ]
!946 = metadata !{metadata !940, metadata !872, metadata !167}
!947 = metadata !{i32 786478, i32 0, metadata !856, metadata !"set", metadata !"set", metadata !"_ZN11ap_int_baseILi17ELb1ELb1EE3setEPKca", metadata !70, i32 1596, metadata !948, i1 false, i1 false, i32 0, i32 0, null, i32 256, i1 false, null, null, i32 0, metadata !82, i32 1596} ; [ DW_TAG_subprogram ]
!948 = metadata !{i32 786453, i32 0, metadata !"", i32 0, i32 0, i64 0, i64 0, i64 0, i32 0, null, metadata !949, i32 0, i32 0} ; [ DW_TAG_subroutine_type ]
!949 = metadata !{metadata !940, metadata !872, metadata !167, metadata !113}
!950 = metadata !{i32 786478, i32 0, metadata !856, metadata !"operator=", metadata !"operator=", metadata !"_ZN11ap_int_baseILi17ELb1ELb1EEaSEa", metadata !70, i32 1610, metadata !951, i1 false, i1 false, i32 0, i32 0, null, i32 256, i1 false, null, null, i32 0, metadata !82, i32 1610} ; [ DW_TAG_subprogram ]
!951 = metadata !{i32 786453, i32 0, metadata !"", i32 0, i32 0, i64 0, i64 0, i64 0, i32 0, null, metadata !952, i32 0, i32 0} ; [ DW_TAG_subroutine_type ]
!952 = metadata !{metadata !940, metadata !872, metadata !113}
!953 = metadata !{i32 786478, i32 0, metadata !856, metadata !"operator=", metadata !"operator=", metadata !"_ZN11ap_int_baseILi17ELb1ELb1EEaSEh", metadata !70, i32 1611, metadata !954, i1 false, i1 false, i32 0, i32 0, null, i32 256, i1 false, null, null, i32 0, metadata !82, i32 1611} ; [ DW_TAG_subprogram ]
!954 = metadata !{i32 786453, i32 0, metadata !"", i32 0, i32 0, i64 0, i64 0, i64 0, i32 0, null, metadata !955, i32 0, i32 0} ; [ DW_TAG_subroutine_type ]
!955 = metadata !{metadata !940, metadata !872, metadata !117}
!956 = metadata !{i32 786478, i32 0, metadata !856, metadata !"operator=", metadata !"operator=", metadata !"_ZN11ap_int_baseILi17ELb1ELb1EEaSEs", metadata !70, i32 1612, metadata !957, i1 false, i1 false, i32 0, i32 0, null, i32 256, i1 false, null, null, i32 0, metadata !82, i32 1612} ; [ DW_TAG_subprogram ]
!957 = metadata !{i32 786453, i32 0, metadata !"", i32 0, i32 0, i64 0, i64 0, i64 0, i32 0, null, metadata !958, i32 0, i32 0} ; [ DW_TAG_subroutine_type ]
!958 = metadata !{metadata !940, metadata !872, metadata !121}
!959 = metadata !{i32 786478, i32 0, metadata !856, metadata !"operator=", metadata !"operator=", metadata !"_ZN11ap_int_baseILi17ELb1ELb1EEaSEt", metadata !70, i32 1613, metadata !960, i1 false, i1 false, i32 0, i32 0, null, i32 256, i1 false, null, null, i32 0, metadata !82, i32 1613} ; [ DW_TAG_subprogram ]
!960 = metadata !{i32 786453, i32 0, metadata !"", i32 0, i32 0, i64 0, i64 0, i64 0, i32 0, null, metadata !961, i32 0, i32 0} ; [ DW_TAG_subroutine_type ]
!961 = metadata !{metadata !940, metadata !872, metadata !125}
!962 = metadata !{i32 786478, i32 0, metadata !856, metadata !"operator=", metadata !"operator=", metadata !"_ZN11ap_int_baseILi17ELb1ELb1EEaSEi", metadata !70, i32 1614, metadata !963, i1 false, i1 false, i32 0, i32 0, null, i32 256, i1 false, null, null, i32 0, metadata !82, i32 1614} ; [ DW_TAG_subprogram ]
!963 = metadata !{i32 786453, i32 0, metadata !"", i32 0, i32 0, i64 0, i64 0, i64 0, i32 0, null, metadata !964, i32 0, i32 0} ; [ DW_TAG_subroutine_type ]
!964 = metadata !{metadata !940, metadata !872, metadata !86}
!965 = metadata !{i32 786478, i32 0, metadata !856, metadata !"operator=", metadata !"operator=", metadata !"_ZN11ap_int_baseILi17ELb1ELb1EEaSEj", metadata !70, i32 1615, metadata !966, i1 false, i1 false, i32 0, i32 0, null, i32 256, i1 false, null, null, i32 0, metadata !82, i32 1615} ; [ DW_TAG_subprogram ]
!966 = metadata !{i32 786453, i32 0, metadata !"", i32 0, i32 0, i64 0, i64 0, i64 0, i32 0, null, metadata !967, i32 0, i32 0} ; [ DW_TAG_subroutine_type ]
!967 = metadata !{metadata !940, metadata !872, metadata !132}
!968 = metadata !{i32 786478, i32 0, metadata !856, metadata !"operator=", metadata !"operator=", metadata !"_ZN11ap_int_baseILi17ELb1ELb1EEaSEx", metadata !70, i32 1616, metadata !969, i1 false, i1 false, i32 0, i32 0, null, i32 256, i1 false, null, null, i32 0, metadata !82, i32 1616} ; [ DW_TAG_subprogram ]
!969 = metadata !{i32 786453, i32 0, metadata !"", i32 0, i32 0, i64 0, i64 0, i64 0, i32 0, null, metadata !970, i32 0, i32 0} ; [ DW_TAG_subroutine_type ]
!970 = metadata !{metadata !940, metadata !872, metadata !144}
!971 = metadata !{i32 786478, i32 0, metadata !856, metadata !"operator=", metadata !"operator=", metadata !"_ZN11ap_int_baseILi17ELb1ELb1EEaSEy", metadata !70, i32 1617, metadata !972, i1 false, i1 false, i32 0, i32 0, null, i32 256, i1 false, null, null, i32 0, metadata !82, i32 1617} ; [ DW_TAG_subprogram ]
!972 = metadata !{i32 786453, i32 0, metadata !"", i32 0, i32 0, i64 0, i64 0, i64 0, i32 0, null, metadata !973, i32 0, i32 0} ; [ DW_TAG_subroutine_type ]
!973 = metadata !{metadata !940, metadata !872, metadata !149}
!974 = metadata !{i32 786478, i32 0, metadata !856, metadata !"operator int", metadata !"operator int", metadata !"_ZNK11ap_int_baseILi17ELb1ELb1EEcviEv", metadata !70, i32 1655, metadata !975, i1 false, i1 false, i32 0, i32 0, null, i32 256, i1 false, null, null, i32 0, metadata !82, i32 1655} ; [ DW_TAG_subprogram ]
!975 = metadata !{i32 786453, i32 0, metadata !"", i32 0, i32 0, i64 0, i64 0, i64 0, i32 0, null, metadata !976, i32 0, i32 0} ; [ DW_TAG_subroutine_type ]
!976 = metadata !{metadata !977, metadata !982}
!977 = metadata !{i32 786454, metadata !856, metadata !"RetType", metadata !70, i32 1403, i64 0, i64 0, i64 0, i32 0, metadata !978} ; [ DW_TAG_typedef ]
!978 = metadata !{i32 786454, metadata !979, metadata !"Type", metadata !70, i32 1380, i64 0, i64 0, i64 0, i32 0, metadata !86} ; [ DW_TAG_typedef ]
!979 = metadata !{i32 786434, null, metadata !"retval<3, true>", metadata !70, i32 1379, i64 8, i64 8, i32 0, i32 0, null, metadata !227, i32 0, null, metadata !980} ; [ DW_TAG_class_type ]
!980 = metadata !{metadata !981, metadata !321}
!981 = metadata !{i32 786480, null, metadata !"_AP_N", metadata !86, i64 3, null, i32 0, i32 0} ; [ DW_TAG_template_value_parameter ]
!982 = metadata !{i32 786447, i32 0, metadata !"", i32 0, i32 0, i64 32, i64 32, i64 0, i32 64, metadata !930} ; [ DW_TAG_pointer_type ]
!983 = metadata !{i32 786478, i32 0, metadata !856, metadata !"to_bool", metadata !"to_bool", metadata !"_ZNK11ap_int_baseILi17ELb1ELb1EE7to_boolEv", metadata !70, i32 1661, metadata !984, i1 false, i1 false, i32 0, i32 0, null, i32 256, i1 false, null, null, i32 0, metadata !82, i32 1661} ; [ DW_TAG_subprogram ]
!984 = metadata !{i32 786453, i32 0, metadata !"", i32 0, i32 0, i64 0, i64 0, i64 0, i32 0, null, metadata !985, i32 0, i32 0} ; [ DW_TAG_subroutine_type ]
!985 = metadata !{metadata !88, metadata !982}
!986 = metadata !{i32 786478, i32 0, metadata !856, metadata !"to_uchar", metadata !"to_uchar", metadata !"_ZNK11ap_int_baseILi17ELb1ELb1EE8to_ucharEv", metadata !70, i32 1662, metadata !987, i1 false, i1 false, i32 0, i32 0, null, i32 256, i1 false, null, null, i32 0, metadata !82, i32 1662} ; [ DW_TAG_subprogram ]
!987 = metadata !{i32 786453, i32 0, metadata !"", i32 0, i32 0, i64 0, i64 0, i64 0, i32 0, null, metadata !988, i32 0, i32 0} ; [ DW_TAG_subroutine_type ]
!988 = metadata !{metadata !117, metadata !982}
!989 = metadata !{i32 786478, i32 0, metadata !856, metadata !"to_char", metadata !"to_char", metadata !"_ZNK11ap_int_baseILi17ELb1ELb1EE7to_charEv", metadata !70, i32 1663, metadata !990, i1 false, i1 false, i32 0, i32 0, null, i32 256, i1 false, null, null, i32 0, metadata !82, i32 1663} ; [ DW_TAG_subprogram ]
!990 = metadata !{i32 786453, i32 0, metadata !"", i32 0, i32 0, i64 0, i64 0, i64 0, i32 0, null, metadata !991, i32 0, i32 0} ; [ DW_TAG_subroutine_type ]
!991 = metadata !{metadata !113, metadata !982}
!992 = metadata !{i32 786478, i32 0, metadata !856, metadata !"to_ushort", metadata !"to_ushort", metadata !"_ZNK11ap_int_baseILi17ELb1ELb1EE9to_ushortEv", metadata !70, i32 1664, metadata !993, i1 false, i1 false, i32 0, i32 0, null, i32 256, i1 false, null, null, i32 0, metadata !82, i32 1664} ; [ DW_TAG_subprogram ]
!993 = metadata !{i32 786453, i32 0, metadata !"", i32 0, i32 0, i64 0, i64 0, i64 0, i32 0, null, metadata !994, i32 0, i32 0} ; [ DW_TAG_subroutine_type ]
!994 = metadata !{metadata !125, metadata !982}
!995 = metadata !{i32 786478, i32 0, metadata !856, metadata !"to_short", metadata !"to_short", metadata !"_ZNK11ap_int_baseILi17ELb1ELb1EE8to_shortEv", metadata !70, i32 1665, metadata !996, i1 false, i1 false, i32 0, i32 0, null, i32 256, i1 false, null, null, i32 0, metadata !82, i32 1665} ; [ DW_TAG_subprogram ]
!996 = metadata !{i32 786453, i32 0, metadata !"", i32 0, i32 0, i64 0, i64 0, i64 0, i32 0, null, metadata !997, i32 0, i32 0} ; [ DW_TAG_subroutine_type ]
!997 = metadata !{metadata !121, metadata !982}
!998 = metadata !{i32 786478, i32 0, metadata !856, metadata !"to_int", metadata !"to_int", metadata !"_ZNK11ap_int_baseILi17ELb1ELb1EE6to_intEv", metadata !70, i32 1666, metadata !999, i1 false, i1 false, i32 0, i32 0, null, i32 256, i1 false, null, null, i32 0, metadata !82, i32 1666} ; [ DW_TAG_subprogram ]
!999 = metadata !{i32 786453, i32 0, metadata !"", i32 0, i32 0, i64 0, i64 0, i64 0, i32 0, null, metadata !1000, i32 0, i32 0} ; [ DW_TAG_subroutine_type ]
!1000 = metadata !{metadata !86, metadata !982}
!1001 = metadata !{i32 786478, i32 0, metadata !856, metadata !"to_uint", metadata !"to_uint", metadata !"_ZNK11ap_int_baseILi17ELb1ELb1EE7to_uintEv", metadata !70, i32 1667, metadata !1002, i1 false, i1 false, i32 0, i32 0, null, i32 256, i1 false, null, null, i32 0, metadata !82, i32 1667} ; [ DW_TAG_subprogram ]
!1002 = metadata !{i32 786453, i32 0, metadata !"", i32 0, i32 0, i64 0, i64 0, i64 0, i32 0, null, metadata !1003, i32 0, i32 0} ; [ DW_TAG_subroutine_type ]
!1003 = metadata !{metadata !132, metadata !982}
!1004 = metadata !{i32 786478, i32 0, metadata !856, metadata !"to_long", metadata !"to_long", metadata !"_ZNK11ap_int_baseILi17ELb1ELb1EE7to_longEv", metadata !70, i32 1668, metadata !1005, i1 false, i1 false, i32 0, i32 0, null, i32 256, i1 false, null, null, i32 0, metadata !82, i32 1668} ; [ DW_TAG_subprogram ]
!1005 = metadata !{i32 786453, i32 0, metadata !"", i32 0, i32 0, i64 0, i64 0, i64 0, i32 0, null, metadata !1006, i32 0, i32 0} ; [ DW_TAG_subroutine_type ]
!1006 = metadata !{metadata !136, metadata !982}
!1007 = metadata !{i32 786478, i32 0, metadata !856, metadata !"to_ulong", metadata !"to_ulong", metadata !"_ZNK11ap_int_baseILi17ELb1ELb1EE8to_ulongEv", metadata !70, i32 1669, metadata !1008, i1 false, i1 false, i32 0, i32 0, null, i32 256, i1 false, null, null, i32 0, metadata !82, i32 1669} ; [ DW_TAG_subprogram ]
!1008 = metadata !{i32 786453, i32 0, metadata !"", i32 0, i32 0, i64 0, i64 0, i64 0, i32 0, null, metadata !1009, i32 0, i32 0} ; [ DW_TAG_subroutine_type ]
!1009 = metadata !{metadata !140, metadata !982}
!1010 = metadata !{i32 786478, i32 0, metadata !856, metadata !"to_int64", metadata !"to_int64", metadata !"_ZNK11ap_int_baseILi17ELb1ELb1EE8to_int64Ev", metadata !70, i32 1670, metadata !1011, i1 false, i1 false, i32 0, i32 0, null, i32 256, i1 false, null, null, i32 0, metadata !82, i32 1670} ; [ DW_TAG_subprogram ]
!1011 = metadata !{i32 786453, i32 0, metadata !"", i32 0, i32 0, i64 0, i64 0, i64 0, i32 0, null, metadata !1012, i32 0, i32 0} ; [ DW_TAG_subroutine_type ]
!1012 = metadata !{metadata !144, metadata !982}
!1013 = metadata !{i32 786478, i32 0, metadata !856, metadata !"to_uint64", metadata !"to_uint64", metadata !"_ZNK11ap_int_baseILi17ELb1ELb1EE9to_uint64Ev", metadata !70, i32 1671, metadata !1014, i1 false, i1 false, i32 0, i32 0, null, i32 256, i1 false, null, null, i32 0, metadata !82, i32 1671} ; [ DW_TAG_subprogram ]
!1014 = metadata !{i32 786453, i32 0, metadata !"", i32 0, i32 0, i64 0, i64 0, i64 0, i32 0, null, metadata !1015, i32 0, i32 0} ; [ DW_TAG_subroutine_type ]
!1015 = metadata !{metadata !149, metadata !982}
!1016 = metadata !{i32 786478, i32 0, metadata !856, metadata !"to_double", metadata !"to_double", metadata !"_ZNK11ap_int_baseILi17ELb1ELb1EE9to_doubleEv", metadata !70, i32 1672, metadata !1017, i1 false, i1 false, i32 0, i32 0, null, i32 256, i1 false, null, null, i32 0, metadata !82, i32 1672} ; [ DW_TAG_subprogram ]
!1017 = metadata !{i32 786453, i32 0, metadata !"", i32 0, i32 0, i64 0, i64 0, i64 0, i32 0, null, metadata !1018, i32 0, i32 0} ; [ DW_TAG_subroutine_type ]
!1018 = metadata !{metadata !163, metadata !982}
!1019 = metadata !{i32 786478, i32 0, metadata !856, metadata !"length", metadata !"length", metadata !"_ZNK11ap_int_baseILi17ELb1ELb1EE6lengthEv", metadata !70, i32 1686, metadata !999, i1 false, i1 false, i32 0, i32 0, null, i32 256, i1 false, null, null, i32 0, metadata !82, i32 1686} ; [ DW_TAG_subprogram ]
!1020 = metadata !{i32 786478, i32 0, metadata !856, metadata !"length", metadata !"length", metadata !"_ZNVK11ap_int_baseILi17ELb1ELb1EE6lengthEv", metadata !70, i32 1687, metadata !1021, i1 false, i1 false, i32 0, i32 0, null, i32 256, i1 false, null, null, i32 0, metadata !82, i32 1687} ; [ DW_TAG_subprogram ]
!1021 = metadata !{i32 786453, i32 0, metadata !"", i32 0, i32 0, i64 0, i64 0, i64 0, i32 0, null, metadata !1022, i32 0, i32 0} ; [ DW_TAG_subroutine_type ]
!1022 = metadata !{metadata !86, metadata !1023}
!1023 = metadata !{i32 786447, i32 0, metadata !"", i32 0, i32 0, i64 32, i64 32, i64 0, i32 64, metadata !935} ; [ DW_TAG_pointer_type ]
!1024 = metadata !{i32 786478, i32 0, metadata !856, metadata !"reverse", metadata !"reverse", metadata !"_ZN11ap_int_baseILi17ELb1ELb1EE7reverseEv", metadata !70, i32 1692, metadata !1025, i1 false, i1 false, i32 0, i32 0, null, i32 256, i1 false, null, null, i32 0, metadata !82, i32 1692} ; [ DW_TAG_subprogram ]
!1025 = metadata !{i32 786453, i32 0, metadata !"", i32 0, i32 0, i64 0, i64 0, i64 0, i32 0, null, metadata !1026, i32 0, i32 0} ; [ DW_TAG_subroutine_type ]
!1026 = metadata !{metadata !940, metadata !872}
!1027 = metadata !{i32 786478, i32 0, metadata !856, metadata !"iszero", metadata !"iszero", metadata !"_ZNK11ap_int_baseILi17ELb1ELb1EE6iszeroEv", metadata !70, i32 1698, metadata !984, i1 false, i1 false, i32 0, i32 0, null, i32 256, i1 false, null, null, i32 0, metadata !82, i32 1698} ; [ DW_TAG_subprogram ]
!1028 = metadata !{i32 786478, i32 0, metadata !856, metadata !"is_zero", metadata !"is_zero", metadata !"_ZNK11ap_int_baseILi17ELb1ELb1EE7is_zeroEv", metadata !70, i32 1703, metadata !984, i1 false, i1 false, i32 0, i32 0, null, i32 256, i1 false, null, null, i32 0, metadata !82, i32 1703} ; [ DW_TAG_subprogram ]
!1029 = metadata !{i32 786478, i32 0, metadata !856, metadata !"sign", metadata !"sign", metadata !"_ZNK11ap_int_baseILi17ELb1ELb1EE4signEv", metadata !70, i32 1708, metadata !984, i1 false, i1 false, i32 0, i32 0, null, i32 256, i1 false, null, null, i32 0, metadata !82, i32 1708} ; [ DW_TAG_subprogram ]
!1030 = metadata !{i32 786478, i32 0, metadata !856, metadata !"clear", metadata !"clear", metadata !"_ZN11ap_int_baseILi17ELb1ELb1EE5clearEi", metadata !70, i32 1716, metadata !889, i1 false, i1 false, i32 0, i32 0, null, i32 256, i1 false, null, null, i32 0, metadata !82, i32 1716} ; [ DW_TAG_subprogram ]
!1031 = metadata !{i32 786478, i32 0, metadata !856, metadata !"invert", metadata !"invert", metadata !"_ZN11ap_int_baseILi17ELb1ELb1EE6invertEi", metadata !70, i32 1722, metadata !889, i1 false, i1 false, i32 0, i32 0, null, i32 256, i1 false, null, null, i32 0, metadata !82, i32 1722} ; [ DW_TAG_subprogram ]
!1032 = metadata !{i32 786478, i32 0, metadata !856, metadata !"test", metadata !"test", metadata !"_ZNK11ap_int_baseILi17ELb1ELb1EE4testEi", metadata !70, i32 1730, metadata !1033, i1 false, i1 false, i32 0, i32 0, null, i32 256, i1 false, null, null, i32 0, metadata !82, i32 1730} ; [ DW_TAG_subprogram ]
!1033 = metadata !{i32 786453, i32 0, metadata !"", i32 0, i32 0, i64 0, i64 0, i64 0, i32 0, null, metadata !1034, i32 0, i32 0} ; [ DW_TAG_subroutine_type ]
!1034 = metadata !{metadata !88, metadata !982, metadata !86}
!1035 = metadata !{i32 786478, i32 0, metadata !856, metadata !"set", metadata !"set", metadata !"_ZN11ap_int_baseILi17ELb1ELb1EE3setEi", metadata !70, i32 1736, metadata !889, i1 false, i1 false, i32 0, i32 0, null, i32 256, i1 false, null, null, i32 0, metadata !82, i32 1736} ; [ DW_TAG_subprogram ]
!1036 = metadata !{i32 786478, i32 0, metadata !856, metadata !"set", metadata !"set", metadata !"_ZN11ap_int_baseILi17ELb1ELb1EE3setEib", metadata !70, i32 1742, metadata !1037, i1 false, i1 false, i32 0, i32 0, null, i32 256, i1 false, null, null, i32 0, metadata !82, i32 1742} ; [ DW_TAG_subprogram ]
!1037 = metadata !{i32 786453, i32 0, metadata !"", i32 0, i32 0, i64 0, i64 0, i64 0, i32 0, null, metadata !1038, i32 0, i32 0} ; [ DW_TAG_subroutine_type ]
!1038 = metadata !{null, metadata !872, metadata !86, metadata !88}
!1039 = metadata !{i32 786478, i32 0, metadata !856, metadata !"lrotate", metadata !"lrotate", metadata !"_ZN11ap_int_baseILi17ELb1ELb1EE7lrotateEi", metadata !70, i32 1749, metadata !889, i1 false, i1 false, i32 0, i32 0, null, i32 256, i1 false, null, null, i32 0, metadata !82, i32 1749} ; [ DW_TAG_subprogram ]
!1040 = metadata !{i32 786478, i32 0, metadata !856, metadata !"rrotate", metadata !"rrotate", metadata !"_ZN11ap_int_baseILi17ELb1ELb1EE7rrotateEi", metadata !70, i32 1758, metadata !889, i1 false, i1 false, i32 0, i32 0, null, i32 256, i1 false, null, null, i32 0, metadata !82, i32 1758} ; [ DW_TAG_subprogram ]
!1041 = metadata !{i32 786478, i32 0, metadata !856, metadata !"set_bit", metadata !"set_bit", metadata !"_ZN11ap_int_baseILi17ELb1ELb1EE7set_bitEib", metadata !70, i32 1766, metadata !1037, i1 false, i1 false, i32 0, i32 0, null, i32 256, i1 false, null, null, i32 0, metadata !82, i32 1766} ; [ DW_TAG_subprogram ]
!1042 = metadata !{i32 786478, i32 0, metadata !856, metadata !"get_bit", metadata !"get_bit", metadata !"_ZNK11ap_int_baseILi17ELb1ELb1EE7get_bitEi", metadata !70, i32 1771, metadata !1033, i1 false, i1 false, i32 0, i32 0, null, i32 256, i1 false, null, null, i32 0, metadata !82, i32 1771} ; [ DW_TAG_subprogram ]
!1043 = metadata !{i32 786478, i32 0, metadata !856, metadata !"b_not", metadata !"b_not", metadata !"_ZN11ap_int_baseILi17ELb1ELb1EE5b_notEv", metadata !70, i32 1776, metadata !870, i1 false, i1 false, i32 0, i32 0, null, i32 256, i1 false, null, null, i32 0, metadata !82, i32 1776} ; [ DW_TAG_subprogram ]
!1044 = metadata !{i32 786478, i32 0, metadata !856, metadata !"countLeadingZeros", metadata !"countLeadingZeros", metadata !"_ZN11ap_int_baseILi17ELb1ELb1EE17countLeadingZerosEv", metadata !70, i32 1783, metadata !1045, i1 false, i1 false, i32 0, i32 0, null, i32 256, i1 false, null, null, i32 0, metadata !82, i32 1783} ; [ DW_TAG_subprogram ]
!1045 = metadata !{i32 786453, i32 0, metadata !"", i32 0, i32 0, i64 0, i64 0, i64 0, i32 0, null, metadata !1046, i32 0, i32 0} ; [ DW_TAG_subroutine_type ]
!1046 = metadata !{metadata !86, metadata !872}
!1047 = metadata !{i32 786478, i32 0, metadata !856, metadata !"operator++", metadata !"operator++", metadata !"_ZN11ap_int_baseILi17ELb1ELb1EEppEv", metadata !70, i32 1840, metadata !1025, i1 false, i1 false, i32 0, i32 0, null, i32 256, i1 false, null, null, i32 0, metadata !82, i32 1840} ; [ DW_TAG_subprogram ]
!1048 = metadata !{i32 786478, i32 0, metadata !856, metadata !"operator--", metadata !"operator--", metadata !"_ZN11ap_int_baseILi17ELb1ELb1EEmmEv", metadata !70, i32 1844, metadata !1025, i1 false, i1 false, i32 0, i32 0, null, i32 256, i1 false, null, null, i32 0, metadata !82, i32 1844} ; [ DW_TAG_subprogram ]
!1049 = metadata !{i32 786478, i32 0, metadata !856, metadata !"operator++", metadata !"operator++", metadata !"_ZN11ap_int_baseILi17ELb1ELb1EEppEi", metadata !70, i32 1852, metadata !1050, i1 false, i1 false, i32 0, i32 0, null, i32 256, i1 false, null, null, i32 0, metadata !82, i32 1852} ; [ DW_TAG_subprogram ]
!1050 = metadata !{i32 786453, i32 0, metadata !"", i32 0, i32 0, i64 0, i64 0, i64 0, i32 0, null, metadata !1051, i32 0, i32 0} ; [ DW_TAG_subroutine_type ]
!1051 = metadata !{metadata !930, metadata !872, metadata !86}
!1052 = metadata !{i32 786478, i32 0, metadata !856, metadata !"operator--", metadata !"operator--", metadata !"_ZN11ap_int_baseILi17ELb1ELb1EEmmEi", metadata !70, i32 1857, metadata !1050, i1 false, i1 false, i32 0, i32 0, null, i32 256, i1 false, null, null, i32 0, metadata !82, i32 1857} ; [ DW_TAG_subprogram ]
!1053 = metadata !{i32 786478, i32 0, metadata !856, metadata !"operator+", metadata !"operator+", metadata !"_ZNK11ap_int_baseILi17ELb1ELb1EEpsEv", metadata !70, i32 1866, metadata !1054, i1 false, i1 false, i32 0, i32 0, null, i32 256, i1 false, null, null, i32 0, metadata !82, i32 1866} ; [ DW_TAG_subprogram ]
!1054 = metadata !{i32 786453, i32 0, metadata !"", i32 0, i32 0, i64 0, i64 0, i64 0, i32 0, null, metadata !1055, i32 0, i32 0} ; [ DW_TAG_subroutine_type ]
!1055 = metadata !{metadata !856, metadata !982}
!1056 = metadata !{i32 786478, i32 0, metadata !856, metadata !"operator!", metadata !"operator!", metadata !"_ZNK11ap_int_baseILi17ELb1ELb1EEntEv", metadata !70, i32 1872, metadata !984, i1 false, i1 false, i32 0, i32 0, null, i32 256, i1 false, null, null, i32 0, metadata !82, i32 1872} ; [ DW_TAG_subprogram ]
!1057 = metadata !{i32 786478, i32 0, metadata !856, metadata !"operator-", metadata !"operator-", metadata !"_ZNK11ap_int_baseILi17ELb1ELb1EEngEv", metadata !70, i32 1877, metadata !1058, i1 false, i1 false, i32 0, i32 0, null, i32 256, i1 false, null, null, i32 0, metadata !82, i32 1877} ; [ DW_TAG_subprogram ]
!1058 = metadata !{i32 786453, i32 0, metadata !"", i32 0, i32 0, i64 0, i64 0, i64 0, i32 0, null, metadata !1059, i32 0, i32 0} ; [ DW_TAG_subroutine_type ]
!1059 = metadata !{metadata !1060, metadata !982}
!1060 = metadata !{i32 786434, null, metadata !"ap_int_base<18, true, true>", metadata !70, i32 651, i32 0, i32 0, i32 0, i32 4, null, null, i32 0} ; [ DW_TAG_class_type ]
!1061 = metadata !{i32 786478, i32 0, metadata !856, metadata !"range", metadata !"range", metadata !"_ZN11ap_int_baseILi17ELb1ELb1EE5rangeEii", metadata !70, i32 2007, metadata !1062, i1 false, i1 false, i32 0, i32 0, null, i32 256, i1 false, null, null, i32 0, metadata !82, i32 2007} ; [ DW_TAG_subprogram ]
!1062 = metadata !{i32 786453, i32 0, metadata !"", i32 0, i32 0, i64 0, i64 0, i64 0, i32 0, null, metadata !1063, i32 0, i32 0} ; [ DW_TAG_subroutine_type ]
!1063 = metadata !{metadata !1064, metadata !872, metadata !86, metadata !86}
!1064 = metadata !{i32 786434, null, metadata !"ap_range_ref<17, true>", metadata !70, i32 924, i32 0, i32 0, i32 0, i32 4, null, null, i32 0} ; [ DW_TAG_class_type ]
!1065 = metadata !{i32 786478, i32 0, metadata !856, metadata !"operator()", metadata !"operator()", metadata !"_ZN11ap_int_baseILi17ELb1ELb1EEclEii", metadata !70, i32 2013, metadata !1062, i1 false, i1 false, i32 0, i32 0, null, i32 256, i1 false, null, null, i32 0, metadata !82, i32 2013} ; [ DW_TAG_subprogram ]
!1066 = metadata !{i32 786478, i32 0, metadata !856, metadata !"range", metadata !"range", metadata !"_ZNK11ap_int_baseILi17ELb1ELb1EE5rangeEii", metadata !70, i32 2019, metadata !1067, i1 false, i1 false, i32 0, i32 0, null, i32 256, i1 false, null, null, i32 0, metadata !82, i32 2019} ; [ DW_TAG_subprogram ]
!1067 = metadata !{i32 786453, i32 0, metadata !"", i32 0, i32 0, i64 0, i64 0, i64 0, i32 0, null, metadata !1068, i32 0, i32 0} ; [ DW_TAG_subroutine_type ]
!1068 = metadata !{metadata !1064, metadata !982, metadata !86, metadata !86}
!1069 = metadata !{i32 786478, i32 0, metadata !856, metadata !"operator()", metadata !"operator()", metadata !"_ZNK11ap_int_baseILi17ELb1ELb1EEclEii", metadata !70, i32 2025, metadata !1067, i1 false, i1 false, i32 0, i32 0, null, i32 256, i1 false, null, null, i32 0, metadata !82, i32 2025} ; [ DW_TAG_subprogram ]
!1070 = metadata !{i32 786478, i32 0, metadata !856, metadata !"operator[]", metadata !"operator[]", metadata !"_ZN11ap_int_baseILi17ELb1ELb1EEixEi", metadata !70, i32 2044, metadata !1071, i1 false, i1 false, i32 0, i32 0, null, i32 256, i1 false, null, null, i32 0, metadata !82, i32 2044} ; [ DW_TAG_subprogram ]
!1071 = metadata !{i32 786453, i32 0, metadata !"", i32 0, i32 0, i64 0, i64 0, i64 0, i32 0, null, metadata !1072, i32 0, i32 0} ; [ DW_TAG_subroutine_type ]
!1072 = metadata !{metadata !1073, metadata !872, metadata !86}
!1073 = metadata !{i32 786434, null, metadata !"ap_bit_ref<17, true>", metadata !70, i32 1194, i64 64, i64 32, i32 0, i32 0, null, metadata !1074, i32 0, null, metadata !1107} ; [ DW_TAG_class_type ]
!1074 = metadata !{metadata !1075, metadata !1076, metadata !1077, metadata !1083, metadata !1087, metadata !1091, metadata !1092, metadata !1096, metadata !1099, metadata !1100, metadata !1103, metadata !1104}
!1075 = metadata !{i32 786445, metadata !1073, metadata !"d_bv", metadata !70, i32 1195, i64 32, i64 32, i64 0, i32 0, metadata !940} ; [ DW_TAG_member ]
!1076 = metadata !{i32 786445, metadata !1073, metadata !"d_index", metadata !70, i32 1196, i64 32, i64 32, i64 32, i32 0, metadata !86} ; [ DW_TAG_member ]
!1077 = metadata !{i32 786478, i32 0, metadata !1073, metadata !"ap_bit_ref", metadata !"ap_bit_ref", metadata !"", metadata !70, i32 1199, metadata !1078, i1 false, i1 false, i32 0, i32 0, null, i32 256, i1 false, null, null, i32 0, metadata !82, i32 1199} ; [ DW_TAG_subprogram ]
!1078 = metadata !{i32 786453, i32 0, metadata !"", i32 0, i32 0, i64 0, i64 0, i64 0, i32 0, null, metadata !1079, i32 0, i32 0} ; [ DW_TAG_subroutine_type ]
!1079 = metadata !{null, metadata !1080, metadata !1081}
!1080 = metadata !{i32 786447, i32 0, metadata !"", i32 0, i32 0, i64 32, i64 32, i64 0, i32 64, metadata !1073} ; [ DW_TAG_pointer_type ]
!1081 = metadata !{i32 786448, null, null, null, i32 0, i64 0, i64 0, i64 0, i32 0, metadata !1082} ; [ DW_TAG_reference_type ]
!1082 = metadata !{i32 786470, null, metadata !"", null, i32 0, i64 0, i64 0, i64 0, i32 0, metadata !1073} ; [ DW_TAG_const_type ]
!1083 = metadata !{i32 786478, i32 0, metadata !1073, metadata !"ap_bit_ref", metadata !"ap_bit_ref", metadata !"", metadata !70, i32 1202, metadata !1084, i1 false, i1 false, i32 0, i32 0, null, i32 256, i1 false, null, null, i32 0, metadata !82, i32 1202} ; [ DW_TAG_subprogram ]
!1084 = metadata !{i32 786453, i32 0, metadata !"", i32 0, i32 0, i64 0, i64 0, i64 0, i32 0, null, metadata !1085, i32 0, i32 0} ; [ DW_TAG_subroutine_type ]
!1085 = metadata !{null, metadata !1080, metadata !1086, metadata !86}
!1086 = metadata !{i32 786447, null, metadata !"", null, i32 0, i64 32, i64 32, i64 0, i32 0, metadata !856} ; [ DW_TAG_pointer_type ]
!1087 = metadata !{i32 786478, i32 0, metadata !1073, metadata !"operator _Bool", metadata !"operator _Bool", metadata !"_ZNK10ap_bit_refILi17ELb1EEcvbEv", metadata !70, i32 1204, metadata !1088, i1 false, i1 false, i32 0, i32 0, null, i32 256, i1 false, null, null, i32 0, metadata !82, i32 1204} ; [ DW_TAG_subprogram ]
!1088 = metadata !{i32 786453, i32 0, metadata !"", i32 0, i32 0, i64 0, i64 0, i64 0, i32 0, null, metadata !1089, i32 0, i32 0} ; [ DW_TAG_subroutine_type ]
!1089 = metadata !{metadata !88, metadata !1090}
!1090 = metadata !{i32 786447, i32 0, metadata !"", i32 0, i32 0, i64 32, i64 32, i64 0, i32 64, metadata !1082} ; [ DW_TAG_pointer_type ]
!1091 = metadata !{i32 786478, i32 0, metadata !1073, metadata !"to_bool", metadata !"to_bool", metadata !"_ZNK10ap_bit_refILi17ELb1EE7to_boolEv", metadata !70, i32 1205, metadata !1088, i1 false, i1 false, i32 0, i32 0, null, i32 256, i1 false, null, null, i32 0, metadata !82, i32 1205} ; [ DW_TAG_subprogram ]
!1092 = metadata !{i32 786478, i32 0, metadata !1073, metadata !"operator=", metadata !"operator=", metadata !"_ZN10ap_bit_refILi17ELb1EEaSEy", metadata !70, i32 1207, metadata !1093, i1 false, i1 false, i32 0, i32 0, null, i32 256, i1 false, null, null, i32 0, metadata !82, i32 1207} ; [ DW_TAG_subprogram ]
!1093 = metadata !{i32 786453, i32 0, metadata !"", i32 0, i32 0, i64 0, i64 0, i64 0, i32 0, null, metadata !1094, i32 0, i32 0} ; [ DW_TAG_subroutine_type ]
!1094 = metadata !{metadata !1095, metadata !1080, metadata !150}
!1095 = metadata !{i32 786448, null, null, null, i32 0, i64 0, i64 0, i64 0, i32 0, metadata !1073} ; [ DW_TAG_reference_type ]
!1096 = metadata !{i32 786478, i32 0, metadata !1073, metadata !"operator=", metadata !"operator=", metadata !"_ZN10ap_bit_refILi17ELb1EEaSERKS0_", metadata !70, i32 1227, metadata !1097, i1 false, i1 false, i32 0, i32 0, null, i32 256, i1 false, null, null, i32 0, metadata !82, i32 1227} ; [ DW_TAG_subprogram ]
!1097 = metadata !{i32 786453, i32 0, metadata !"", i32 0, i32 0, i64 0, i64 0, i64 0, i32 0, null, metadata !1098, i32 0, i32 0} ; [ DW_TAG_subroutine_type ]
!1098 = metadata !{metadata !1095, metadata !1080, metadata !1081}
!1099 = metadata !{i32 786478, i32 0, metadata !1073, metadata !"get", metadata !"get", metadata !"_ZNK10ap_bit_refILi17ELb1EE3getEv", metadata !70, i32 1335, metadata !1088, i1 false, i1 false, i32 0, i32 0, null, i32 256, i1 false, null, null, i32 0, metadata !82, i32 1335} ; [ DW_TAG_subprogram ]
!1100 = metadata !{i32 786478, i32 0, metadata !1073, metadata !"get", metadata !"get", metadata !"_ZN10ap_bit_refILi17ELb1EE3getEv", metadata !70, i32 1339, metadata !1101, i1 false, i1 false, i32 0, i32 0, null, i32 256, i1 false, null, null, i32 0, metadata !82, i32 1339} ; [ DW_TAG_subprogram ]
!1101 = metadata !{i32 786453, i32 0, metadata !"", i32 0, i32 0, i64 0, i64 0, i64 0, i32 0, null, metadata !1102, i32 0, i32 0} ; [ DW_TAG_subroutine_type ]
!1102 = metadata !{metadata !88, metadata !1080}
!1103 = metadata !{i32 786478, i32 0, metadata !1073, metadata !"operator~", metadata !"operator~", metadata !"_ZNK10ap_bit_refILi17ELb1EEcoEv", metadata !70, i32 1348, metadata !1088, i1 false, i1 false, i32 0, i32 0, null, i32 256, i1 false, null, null, i32 0, metadata !82, i32 1348} ; [ DW_TAG_subprogram ]
!1104 = metadata !{i32 786478, i32 0, metadata !1073, metadata !"length", metadata !"length", metadata !"_ZNK10ap_bit_refILi17ELb1EE6lengthEv", metadata !70, i32 1353, metadata !1105, i1 false, i1 false, i32 0, i32 0, null, i32 256, i1 false, null, null, i32 0, metadata !82, i32 1353} ; [ DW_TAG_subprogram ]
!1105 = metadata !{i32 786453, i32 0, metadata !"", i32 0, i32 0, i64 0, i64 0, i64 0, i32 0, null, metadata !1106, i32 0, i32 0} ; [ DW_TAG_subroutine_type ]
!1106 = metadata !{metadata !86, metadata !1090}
!1107 = metadata !{metadata !1108, metadata !321}
!1108 = metadata !{i32 786480, null, metadata !"_AP_W", metadata !86, i64 17, null, i32 0, i32 0} ; [ DW_TAG_template_value_parameter ]
!1109 = metadata !{i32 786478, i32 0, metadata !856, metadata !"operator[]", metadata !"operator[]", metadata !"_ZNK11ap_int_baseILi17ELb1ELb1EEixEi", metadata !70, i32 2058, metadata !1033, i1 false, i1 false, i32 0, i32 0, null, i32 256, i1 false, null, null, i32 0, metadata !82, i32 2058} ; [ DW_TAG_subprogram ]
!1110 = metadata !{i32 786478, i32 0, metadata !856, metadata !"bit", metadata !"bit", metadata !"_ZN11ap_int_baseILi17ELb1ELb1EE3bitEi", metadata !70, i32 2072, metadata !1071, i1 false, i1 false, i32 0, i32 0, null, i32 256, i1 false, null, null, i32 0, metadata !82, i32 2072} ; [ DW_TAG_subprogram ]
!1111 = metadata !{i32 786478, i32 0, metadata !856, metadata !"bit", metadata !"bit", metadata !"_ZNK11ap_int_baseILi17ELb1ELb1EE3bitEi", metadata !70, i32 2086, metadata !1033, i1 false, i1 false, i32 0, i32 0, null, i32 256, i1 false, null, null, i32 0, metadata !82, i32 2086} ; [ DW_TAG_subprogram ]
!1112 = metadata !{i32 786478, i32 0, metadata !856, metadata !"and_reduce", metadata !"and_reduce", metadata !"_ZN11ap_int_baseILi17ELb1ELb1EE10and_reduceEv", metadata !70, i32 2266, metadata !1113, i1 false, i1 false, i32 0, i32 0, null, i32 256, i1 false, null, null, i32 0, metadata !82, i32 2266} ; [ DW_TAG_subprogram ]
!1113 = metadata !{i32 786453, i32 0, metadata !"", i32 0, i32 0, i64 0, i64 0, i64 0, i32 0, null, metadata !1114, i32 0, i32 0} ; [ DW_TAG_subroutine_type ]
!1114 = metadata !{metadata !88, metadata !872}
!1115 = metadata !{i32 786478, i32 0, metadata !856, metadata !"nand_reduce", metadata !"nand_reduce", metadata !"_ZN11ap_int_baseILi17ELb1ELb1EE11nand_reduceEv", metadata !70, i32 2269, metadata !1113, i1 false, i1 false, i32 0, i32 0, null, i32 256, i1 false, null, null, i32 0, metadata !82, i32 2269} ; [ DW_TAG_subprogram ]
!1116 = metadata !{i32 786478, i32 0, metadata !856, metadata !"or_reduce", metadata !"or_reduce", metadata !"_ZN11ap_int_baseILi17ELb1ELb1EE9or_reduceEv", metadata !70, i32 2272, metadata !1113, i1 false, i1 false, i32 0, i32 0, null, i32 256, i1 false, null, null, i32 0, metadata !82, i32 2272} ; [ DW_TAG_subprogram ]
!1117 = metadata !{i32 786478, i32 0, metadata !856, metadata !"nor_reduce", metadata !"nor_reduce", metadata !"_ZN11ap_int_baseILi17ELb1ELb1EE10nor_reduceEv", metadata !70, i32 2275, metadata !1113, i1 false, i1 false, i32 0, i32 0, null, i32 256, i1 false, null, null, i32 0, metadata !82, i32 2275} ; [ DW_TAG_subprogram ]
!1118 = metadata !{i32 786478, i32 0, metadata !856, metadata !"xor_reduce", metadata !"xor_reduce", metadata !"_ZN11ap_int_baseILi17ELb1ELb1EE10xor_reduceEv", metadata !70, i32 2278, metadata !1113, i1 false, i1 false, i32 0, i32 0, null, i32 256, i1 false, null, null, i32 0, metadata !82, i32 2278} ; [ DW_TAG_subprogram ]
!1119 = metadata !{i32 786478, i32 0, metadata !856, metadata !"xnor_reduce", metadata !"xnor_reduce", metadata !"_ZN11ap_int_baseILi17ELb1ELb1EE11xnor_reduceEv", metadata !70, i32 2281, metadata !1113, i1 false, i1 false, i32 0, i32 0, null, i32 256, i1 false, null, null, i32 0, metadata !82, i32 2281} ; [ DW_TAG_subprogram ]
!1120 = metadata !{i32 786478, i32 0, metadata !856, metadata !"and_reduce", metadata !"and_reduce", metadata !"_ZNK11ap_int_baseILi17ELb1ELb1EE10and_reduceEv", metadata !70, i32 2285, metadata !984, i1 false, i1 false, i32 0, i32 0, null, i32 256, i1 false, null, null, i32 0, metadata !82, i32 2285} ; [ DW_TAG_subprogram ]
!1121 = metadata !{i32 786478, i32 0, metadata !856, metadata !"nand_reduce", metadata !"nand_reduce", metadata !"_ZNK11ap_int_baseILi17ELb1ELb1EE11nand_reduceEv", metadata !70, i32 2288, metadata !984, i1 false, i1 false, i32 0, i32 0, null, i32 256, i1 false, null, null, i32 0, metadata !82, i32 2288} ; [ DW_TAG_subprogram ]
!1122 = metadata !{i32 786478, i32 0, metadata !856, metadata !"or_reduce", metadata !"or_reduce", metadata !"_ZNK11ap_int_baseILi17ELb1ELb1EE9or_reduceEv", metadata !70, i32 2291, metadata !984, i1 false, i1 false, i32 0, i32 0, null, i32 256, i1 false, null, null, i32 0, metadata !82, i32 2291} ; [ DW_TAG_subprogram ]
!1123 = metadata !{i32 786478, i32 0, metadata !856, metadata !"nor_reduce", metadata !"nor_reduce", metadata !"_ZNK11ap_int_baseILi17ELb1ELb1EE10nor_reduceEv", metadata !70, i32 2294, metadata !984, i1 false, i1 false, i32 0, i32 0, null, i32 256, i1 false, null, null, i32 0, metadata !82, i32 2294} ; [ DW_TAG_subprogram ]
!1124 = metadata !{i32 786478, i32 0, metadata !856, metadata !"xor_reduce", metadata !"xor_reduce", metadata !"_ZNK11ap_int_baseILi17ELb1ELb1EE10xor_reduceEv", metadata !70, i32 2297, metadata !984, i1 false, i1 false, i32 0, i32 0, null, i32 256, i1 false, null, null, i32 0, metadata !82, i32 2297} ; [ DW_TAG_subprogram ]
!1125 = metadata !{i32 786478, i32 0, metadata !856, metadata !"xnor_reduce", metadata !"xnor_reduce", metadata !"_ZNK11ap_int_baseILi17ELb1ELb1EE11xnor_reduceEv", metadata !70, i32 2300, metadata !984, i1 false, i1 false, i32 0, i32 0, null, i32 256, i1 false, null, null, i32 0, metadata !82, i32 2300} ; [ DW_TAG_subprogram ]
!1126 = metadata !{i32 786478, i32 0, metadata !856, metadata !"to_string", metadata !"to_string", metadata !"_ZNK11ap_int_baseILi17ELb1ELb1EE9to_stringEPci8BaseModeb", metadata !70, i32 2307, metadata !1127, i1 false, i1 false, i32 0, i32 0, null, i32 256, i1 false, null, null, i32 0, metadata !82, i32 2307} ; [ DW_TAG_subprogram ]
!1127 = metadata !{i32 786453, i32 0, metadata !"", i32 0, i32 0, i64 0, i64 0, i64 0, i32 0, null, metadata !1128, i32 0, i32 0} ; [ DW_TAG_subroutine_type ]
!1128 = metadata !{null, metadata !982, metadata !582, metadata !86, metadata !583, metadata !88}
!1129 = metadata !{i32 786478, i32 0, metadata !856, metadata !"to_string", metadata !"to_string", metadata !"_ZNK11ap_int_baseILi17ELb1ELb1EE9to_stringE8BaseModeb", metadata !70, i32 2334, metadata !1130, i1 false, i1 false, i32 0, i32 0, null, i32 256, i1 false, null, null, i32 0, metadata !82, i32 2334} ; [ DW_TAG_subprogram ]
!1130 = metadata !{i32 786453, i32 0, metadata !"", i32 0, i32 0, i64 0, i64 0, i64 0, i32 0, null, metadata !1131, i32 0, i32 0} ; [ DW_TAG_subroutine_type ]
!1131 = metadata !{metadata !582, metadata !982, metadata !583, metadata !88}
!1132 = metadata !{i32 786478, i32 0, metadata !856, metadata !"to_string", metadata !"to_string", metadata !"_ZNK11ap_int_baseILi17ELb1ELb1EE9to_stringEab", metadata !70, i32 2338, metadata !1133, i1 false, i1 false, i32 0, i32 0, null, i32 256, i1 false, null, null, i32 0, metadata !82, i32 2338} ; [ DW_TAG_subprogram ]
!1133 = metadata !{i32 786453, i32 0, metadata !"", i32 0, i32 0, i64 0, i64 0, i64 0, i32 0, null, metadata !1134, i32 0, i32 0} ; [ DW_TAG_subroutine_type ]
!1134 = metadata !{metadata !582, metadata !982, metadata !113, metadata !88}
!1135 = metadata !{metadata !1108, metadata !321, metadata !596}
!1136 = metadata !{i32 786478, i32 0, metadata !647, metadata !"range", metadata !"range", metadata !"_ZN11ap_int_baseILi16ELb0ELb1EE5rangeEii", metadata !70, i32 2007, metadata !1137, i1 false, i1 false, i32 0, i32 0, null, i32 256, i1 false, null, null, i32 0, metadata !82, i32 2007} ; [ DW_TAG_subprogram ]
!1137 = metadata !{i32 786453, i32 0, metadata !"", i32 0, i32 0, i64 0, i64 0, i64 0, i32 0, null, metadata !1138, i32 0, i32 0} ; [ DW_TAG_subroutine_type ]
!1138 = metadata !{metadata !1139, metadata !663, metadata !86, metadata !86}
!1139 = metadata !{i32 786434, null, metadata !"ap_range_ref<16, false>", metadata !70, i32 924, i32 0, i32 0, i32 0, i32 4, null, null, i32 0} ; [ DW_TAG_class_type ]
!1140 = metadata !{i32 786478, i32 0, metadata !647, metadata !"operator()", metadata !"operator()", metadata !"_ZN11ap_int_baseILi16ELb0ELb1EEclEii", metadata !70, i32 2013, metadata !1137, i1 false, i1 false, i32 0, i32 0, null, i32 256, i1 false, null, null, i32 0, metadata !82, i32 2013} ; [ DW_TAG_subprogram ]
!1141 = metadata !{i32 786478, i32 0, metadata !647, metadata !"range", metadata !"range", metadata !"_ZNK11ap_int_baseILi16ELb0ELb1EE5rangeEii", metadata !70, i32 2019, metadata !1142, i1 false, i1 false, i32 0, i32 0, null, i32 256, i1 false, null, null, i32 0, metadata !82, i32 2019} ; [ DW_TAG_subprogram ]
!1142 = metadata !{i32 786453, i32 0, metadata !"", i32 0, i32 0, i64 0, i64 0, i64 0, i32 0, null, metadata !1143, i32 0, i32 0} ; [ DW_TAG_subroutine_type ]
!1143 = metadata !{metadata !1139, metadata !778, metadata !86, metadata !86}
!1144 = metadata !{i32 786478, i32 0, metadata !647, metadata !"operator()", metadata !"operator()", metadata !"_ZNK11ap_int_baseILi16ELb0ELb1EEclEii", metadata !70, i32 2025, metadata !1142, i1 false, i1 false, i32 0, i32 0, null, i32 256, i1 false, null, null, i32 0, metadata !82, i32 2025} ; [ DW_TAG_subprogram ]
!1145 = metadata !{i32 786478, i32 0, metadata !647, metadata !"operator[]", metadata !"operator[]", metadata !"_ZN11ap_int_baseILi16ELb0ELb1EEixEi", metadata !70, i32 2044, metadata !1146, i1 false, i1 false, i32 0, i32 0, null, i32 256, i1 false, null, null, i32 0, metadata !82, i32 2044} ; [ DW_TAG_subprogram ]
!1146 = metadata !{i32 786453, i32 0, metadata !"", i32 0, i32 0, i64 0, i64 0, i64 0, i32 0, null, metadata !1147, i32 0, i32 0} ; [ DW_TAG_subroutine_type ]
!1147 = metadata !{metadata !1148, metadata !663, metadata !86}
!1148 = metadata !{i32 786434, null, metadata !"ap_bit_ref<16, false>", metadata !70, i32 1194, i32 0, i32 0, i32 0, i32 4, null, null, i32 0} ; [ DW_TAG_class_type ]
!1149 = metadata !{i32 786478, i32 0, metadata !647, metadata !"operator[]", metadata !"operator[]", metadata !"_ZNK11ap_int_baseILi16ELb0ELb1EEixEi", metadata !70, i32 2058, metadata !829, i1 false, i1 false, i32 0, i32 0, null, i32 256, i1 false, null, null, i32 0, metadata !82, i32 2058} ; [ DW_TAG_subprogram ]
!1150 = metadata !{i32 786478, i32 0, metadata !647, metadata !"bit", metadata !"bit", metadata !"_ZN11ap_int_baseILi16ELb0ELb1EE3bitEi", metadata !70, i32 2072, metadata !1146, i1 false, i1 false, i32 0, i32 0, null, i32 256, i1 false, null, null, i32 0, metadata !82, i32 2072} ; [ DW_TAG_subprogram ]
!1151 = metadata !{i32 786478, i32 0, metadata !647, metadata !"bit", metadata !"bit", metadata !"_ZNK11ap_int_baseILi16ELb0ELb1EE3bitEi", metadata !70, i32 2086, metadata !829, i1 false, i1 false, i32 0, i32 0, null, i32 256, i1 false, null, null, i32 0, metadata !82, i32 2086} ; [ DW_TAG_subprogram ]
!1152 = metadata !{i32 786478, i32 0, metadata !647, metadata !"and_reduce", metadata !"and_reduce", metadata !"_ZN11ap_int_baseILi16ELb0ELb1EE10and_reduceEv", metadata !70, i32 2266, metadata !1153, i1 false, i1 false, i32 0, i32 0, null, i32 256, i1 false, null, null, i32 0, metadata !82, i32 2266} ; [ DW_TAG_subprogram ]
!1153 = metadata !{i32 786453, i32 0, metadata !"", i32 0, i32 0, i64 0, i64 0, i64 0, i32 0, null, metadata !1154, i32 0, i32 0} ; [ DW_TAG_subroutine_type ]
!1154 = metadata !{metadata !88, metadata !663}
!1155 = metadata !{i32 786478, i32 0, metadata !647, metadata !"nand_reduce", metadata !"nand_reduce", metadata !"_ZN11ap_int_baseILi16ELb0ELb1EE11nand_reduceEv", metadata !70, i32 2269, metadata !1153, i1 false, i1 false, i32 0, i32 0, null, i32 256, i1 false, null, null, i32 0, metadata !82, i32 2269} ; [ DW_TAG_subprogram ]
!1156 = metadata !{i32 786478, i32 0, metadata !647, metadata !"or_reduce", metadata !"or_reduce", metadata !"_ZN11ap_int_baseILi16ELb0ELb1EE9or_reduceEv", metadata !70, i32 2272, metadata !1153, i1 false, i1 false, i32 0, i32 0, null, i32 256, i1 false, null, null, i32 0, metadata !82, i32 2272} ; [ DW_TAG_subprogram ]
!1157 = metadata !{i32 786478, i32 0, metadata !647, metadata !"nor_reduce", metadata !"nor_reduce", metadata !"_ZN11ap_int_baseILi16ELb0ELb1EE10nor_reduceEv", metadata !70, i32 2275, metadata !1153, i1 false, i1 false, i32 0, i32 0, null, i32 256, i1 false, null, null, i32 0, metadata !82, i32 2275} ; [ DW_TAG_subprogram ]
!1158 = metadata !{i32 786478, i32 0, metadata !647, metadata !"xor_reduce", metadata !"xor_reduce", metadata !"_ZN11ap_int_baseILi16ELb0ELb1EE10xor_reduceEv", metadata !70, i32 2278, metadata !1153, i1 false, i1 false, i32 0, i32 0, null, i32 256, i1 false, null, null, i32 0, metadata !82, i32 2278} ; [ DW_TAG_subprogram ]
!1159 = metadata !{i32 786478, i32 0, metadata !647, metadata !"xnor_reduce", metadata !"xnor_reduce", metadata !"_ZN11ap_int_baseILi16ELb0ELb1EE11xnor_reduceEv", metadata !70, i32 2281, metadata !1153, i1 false, i1 false, i32 0, i32 0, null, i32 256, i1 false, null, null, i32 0, metadata !82, i32 2281} ; [ DW_TAG_subprogram ]
!1160 = metadata !{i32 786478, i32 0, metadata !647, metadata !"and_reduce", metadata !"and_reduce", metadata !"_ZNK11ap_int_baseILi16ELb0ELb1EE10and_reduceEv", metadata !70, i32 2285, metadata !780, i1 false, i1 false, i32 0, i32 0, null, i32 256, i1 false, null, null, i32 0, metadata !82, i32 2285} ; [ DW_TAG_subprogram ]
!1161 = metadata !{i32 786478, i32 0, metadata !647, metadata !"nand_reduce", metadata !"nand_reduce", metadata !"_ZNK11ap_int_baseILi16ELb0ELb1EE11nand_reduceEv", metadata !70, i32 2288, metadata !780, i1 false, i1 false, i32 0, i32 0, null, i32 256, i1 false, null, null, i32 0, metadata !82, i32 2288} ; [ DW_TAG_subprogram ]
!1162 = metadata !{i32 786478, i32 0, metadata !647, metadata !"or_reduce", metadata !"or_reduce", metadata !"_ZNK11ap_int_baseILi16ELb0ELb1EE9or_reduceEv", metadata !70, i32 2291, metadata !780, i1 false, i1 false, i32 0, i32 0, null, i32 256, i1 false, null, null, i32 0, metadata !82, i32 2291} ; [ DW_TAG_subprogram ]
!1163 = metadata !{i32 786478, i32 0, metadata !647, metadata !"nor_reduce", metadata !"nor_reduce", metadata !"_ZNK11ap_int_baseILi16ELb0ELb1EE10nor_reduceEv", metadata !70, i32 2294, metadata !780, i1 false, i1 false, i32 0, i32 0, null, i32 256, i1 false, null, null, i32 0, metadata !82, i32 2294} ; [ DW_TAG_subprogram ]
!1164 = metadata !{i32 786478, i32 0, metadata !647, metadata !"xor_reduce", metadata !"xor_reduce", metadata !"_ZNK11ap_int_baseILi16ELb0ELb1EE10xor_reduceEv", metadata !70, i32 2297, metadata !780, i1 false, i1 false, i32 0, i32 0, null, i32 256, i1 false, null, null, i32 0, metadata !82, i32 2297} ; [ DW_TAG_subprogram ]
!1165 = metadata !{i32 786478, i32 0, metadata !647, metadata !"xnor_reduce", metadata !"xnor_reduce", metadata !"_ZNK11ap_int_baseILi16ELb0ELb1EE11xnor_reduceEv", metadata !70, i32 2300, metadata !780, i1 false, i1 false, i32 0, i32 0, null, i32 256, i1 false, null, null, i32 0, metadata !82, i32 2300} ; [ DW_TAG_subprogram ]
!1166 = metadata !{i32 786478, i32 0, metadata !647, metadata !"to_string", metadata !"to_string", metadata !"_ZNK11ap_int_baseILi16ELb0ELb1EE9to_stringEPci8BaseModeb", metadata !70, i32 2307, metadata !1167, i1 false, i1 false, i32 0, i32 0, null, i32 256, i1 false, null, null, i32 0, metadata !82, i32 2307} ; [ DW_TAG_subprogram ]
!1167 = metadata !{i32 786453, i32 0, metadata !"", i32 0, i32 0, i64 0, i64 0, i64 0, i32 0, null, metadata !1168, i32 0, i32 0} ; [ DW_TAG_subroutine_type ]
!1168 = metadata !{null, metadata !778, metadata !582, metadata !86, metadata !583, metadata !88}
!1169 = metadata !{i32 786478, i32 0, metadata !647, metadata !"to_string", metadata !"to_string", metadata !"_ZNK11ap_int_baseILi16ELb0ELb1EE9to_stringE8BaseModeb", metadata !70, i32 2334, metadata !1170, i1 false, i1 false, i32 0, i32 0, null, i32 256, i1 false, null, null, i32 0, metadata !82, i32 2334} ; [ DW_TAG_subprogram ]
!1170 = metadata !{i32 786453, i32 0, metadata !"", i32 0, i32 0, i64 0, i64 0, i64 0, i32 0, null, metadata !1171, i32 0, i32 0} ; [ DW_TAG_subroutine_type ]
!1171 = metadata !{metadata !582, metadata !778, metadata !583, metadata !88}
!1172 = metadata !{i32 786478, i32 0, metadata !647, metadata !"to_string", metadata !"to_string", metadata !"_ZNK11ap_int_baseILi16ELb0ELb1EE9to_stringEab", metadata !70, i32 2338, metadata !1173, i1 false, i1 false, i32 0, i32 0, null, i32 256, i1 false, null, null, i32 0, metadata !82, i32 2338} ; [ DW_TAG_subprogram ]
!1173 = metadata !{i32 786453, i32 0, metadata !"", i32 0, i32 0, i64 0, i64 0, i64 0, i32 0, null, metadata !1174, i32 0, i32 0} ; [ DW_TAG_subroutine_type ]
!1174 = metadata !{metadata !582, metadata !778, metadata !113, metadata !88}
!1175 = metadata !{i32 786478, i32 0, metadata !647, metadata !"~ap_int_base", metadata !"~ap_int_base", metadata !"", metadata !70, i32 1398, metadata !661, i1 false, i1 false, i32 0, i32 0, null, i32 320, i1 false, null, null, i32 0, metadata !82, i32 1398} ; [ DW_TAG_subprogram ]
!1176 = metadata !{metadata !1177, metadata !87, metadata !596}
!1177 = metadata !{i32 786480, null, metadata !"_AP_W", metadata !86, i64 16, null, i32 0, i32 0} ; [ DW_TAG_template_value_parameter ]
!1178 = metadata !{i32 786478, i32 0, metadata !65, metadata !"ap_uint", metadata !"ap_uint", metadata !"", metadata !66, i32 247, metadata !1179, i1 false, i1 false, i32 0, i32 0, null, i32 256, i1 false, null, null, i32 0, metadata !82, i32 247} ; [ DW_TAG_subprogram ]
!1179 = metadata !{i32 786453, i32 0, metadata !"", i32 0, i32 0, i64 0, i64 0, i64 0, i32 0, null, metadata !1180, i32 0, i32 0} ; [ DW_TAG_subroutine_type ]
!1180 = metadata !{null, metadata !641, metadata !88}
!1181 = metadata !{i32 786478, i32 0, metadata !65, metadata !"ap_uint", metadata !"ap_uint", metadata !"", metadata !66, i32 248, metadata !1182, i1 false, i1 false, i32 0, i32 0, null, i32 256, i1 false, null, null, i32 0, metadata !82, i32 248} ; [ DW_TAG_subprogram ]
!1182 = metadata !{i32 786453, i32 0, metadata !"", i32 0, i32 0, i64 0, i64 0, i64 0, i32 0, null, metadata !1183, i32 0, i32 0} ; [ DW_TAG_subroutine_type ]
!1183 = metadata !{null, metadata !641, metadata !113}
!1184 = metadata !{i32 786478, i32 0, metadata !65, metadata !"ap_uint", metadata !"ap_uint", metadata !"", metadata !66, i32 249, metadata !1185, i1 false, i1 false, i32 0, i32 0, null, i32 256, i1 false, null, null, i32 0, metadata !82, i32 249} ; [ DW_TAG_subprogram ]
!1185 = metadata !{i32 786453, i32 0, metadata !"", i32 0, i32 0, i64 0, i64 0, i64 0, i32 0, null, metadata !1186, i32 0, i32 0} ; [ DW_TAG_subroutine_type ]
!1186 = metadata !{null, metadata !641, metadata !117}
!1187 = metadata !{i32 786478, i32 0, metadata !65, metadata !"ap_uint", metadata !"ap_uint", metadata !"", metadata !66, i32 250, metadata !1188, i1 false, i1 false, i32 0, i32 0, null, i32 256, i1 false, null, null, i32 0, metadata !82, i32 250} ; [ DW_TAG_subprogram ]
!1188 = metadata !{i32 786453, i32 0, metadata !"", i32 0, i32 0, i64 0, i64 0, i64 0, i32 0, null, metadata !1189, i32 0, i32 0} ; [ DW_TAG_subroutine_type ]
!1189 = metadata !{null, metadata !641, metadata !121}
!1190 = metadata !{i32 786478, i32 0, metadata !65, metadata !"ap_uint", metadata !"ap_uint", metadata !"", metadata !66, i32 251, metadata !1191, i1 false, i1 false, i32 0, i32 0, null, i32 256, i1 false, null, null, i32 0, metadata !82, i32 251} ; [ DW_TAG_subprogram ]
!1191 = metadata !{i32 786453, i32 0, metadata !"", i32 0, i32 0, i64 0, i64 0, i64 0, i32 0, null, metadata !1192, i32 0, i32 0} ; [ DW_TAG_subroutine_type ]
!1192 = metadata !{null, metadata !641, metadata !125}
!1193 = metadata !{i32 786478, i32 0, metadata !65, metadata !"ap_uint", metadata !"ap_uint", metadata !"", metadata !66, i32 252, metadata !1194, i1 false, i1 false, i32 0, i32 0, null, i32 256, i1 false, null, null, i32 0, metadata !82, i32 252} ; [ DW_TAG_subprogram ]
!1194 = metadata !{i32 786453, i32 0, metadata !"", i32 0, i32 0, i64 0, i64 0, i64 0, i32 0, null, metadata !1195, i32 0, i32 0} ; [ DW_TAG_subroutine_type ]
!1195 = metadata !{null, metadata !641, metadata !86}
!1196 = metadata !{i32 786478, i32 0, metadata !65, metadata !"ap_uint", metadata !"ap_uint", metadata !"", metadata !66, i32 253, metadata !1197, i1 false, i1 false, i32 0, i32 0, null, i32 256, i1 false, null, null, i32 0, metadata !82, i32 253} ; [ DW_TAG_subprogram ]
!1197 = metadata !{i32 786453, i32 0, metadata !"", i32 0, i32 0, i64 0, i64 0, i64 0, i32 0, null, metadata !1198, i32 0, i32 0} ; [ DW_TAG_subroutine_type ]
!1198 = metadata !{null, metadata !641, metadata !132}
!1199 = metadata !{i32 786478, i32 0, metadata !65, metadata !"ap_uint", metadata !"ap_uint", metadata !"", metadata !66, i32 254, metadata !1200, i1 false, i1 false, i32 0, i32 0, null, i32 256, i1 false, null, null, i32 0, metadata !82, i32 254} ; [ DW_TAG_subprogram ]
!1200 = metadata !{i32 786453, i32 0, metadata !"", i32 0, i32 0, i64 0, i64 0, i64 0, i32 0, null, metadata !1201, i32 0, i32 0} ; [ DW_TAG_subroutine_type ]
!1201 = metadata !{null, metadata !641, metadata !136}
!1202 = metadata !{i32 786478, i32 0, metadata !65, metadata !"ap_uint", metadata !"ap_uint", metadata !"", metadata !66, i32 255, metadata !1203, i1 false, i1 false, i32 0, i32 0, null, i32 256, i1 false, null, null, i32 0, metadata !82, i32 255} ; [ DW_TAG_subprogram ]
!1203 = metadata !{i32 786453, i32 0, metadata !"", i32 0, i32 0, i64 0, i64 0, i64 0, i32 0, null, metadata !1204, i32 0, i32 0} ; [ DW_TAG_subroutine_type ]
!1204 = metadata !{null, metadata !641, metadata !140}
!1205 = metadata !{i32 786478, i32 0, metadata !65, metadata !"ap_uint", metadata !"ap_uint", metadata !"", metadata !66, i32 256, metadata !1206, i1 false, i1 false, i32 0, i32 0, null, i32 256, i1 false, null, null, i32 0, metadata !82, i32 256} ; [ DW_TAG_subprogram ]
!1206 = metadata !{i32 786453, i32 0, metadata !"", i32 0, i32 0, i64 0, i64 0, i64 0, i32 0, null, metadata !1207, i32 0, i32 0} ; [ DW_TAG_subroutine_type ]
!1207 = metadata !{null, metadata !641, metadata !150}
!1208 = metadata !{i32 786478, i32 0, metadata !65, metadata !"ap_uint", metadata !"ap_uint", metadata !"", metadata !66, i32 257, metadata !1209, i1 false, i1 false, i32 0, i32 0, null, i32 256, i1 false, null, null, i32 0, metadata !82, i32 257} ; [ DW_TAG_subprogram ]
!1209 = metadata !{i32 786453, i32 0, metadata !"", i32 0, i32 0, i64 0, i64 0, i64 0, i32 0, null, metadata !1210, i32 0, i32 0} ; [ DW_TAG_subroutine_type ]
!1210 = metadata !{null, metadata !641, metadata !145}
!1211 = metadata !{i32 786478, i32 0, metadata !65, metadata !"ap_uint", metadata !"ap_uint", metadata !"", metadata !66, i32 258, metadata !1212, i1 false, i1 false, i32 0, i32 0, null, i32 256, i1 false, null, null, i32 0, metadata !82, i32 258} ; [ DW_TAG_subprogram ]
!1212 = metadata !{i32 786453, i32 0, metadata !"", i32 0, i32 0, i64 0, i64 0, i64 0, i32 0, null, metadata !1213, i32 0, i32 0} ; [ DW_TAG_subroutine_type ]
!1213 = metadata !{null, metadata !641, metadata !154}
!1214 = metadata !{i32 786478, i32 0, metadata !65, metadata !"ap_uint", metadata !"ap_uint", metadata !"", metadata !66, i32 259, metadata !1215, i1 false, i1 false, i32 0, i32 0, null, i32 256, i1 false, null, null, i32 0, metadata !82, i32 259} ; [ DW_TAG_subprogram ]
!1215 = metadata !{i32 786453, i32 0, metadata !"", i32 0, i32 0, i64 0, i64 0, i64 0, i32 0, null, metadata !1216, i32 0, i32 0} ; [ DW_TAG_subroutine_type ]
!1216 = metadata !{null, metadata !641, metadata !159}
!1217 = metadata !{i32 786478, i32 0, metadata !65, metadata !"ap_uint", metadata !"ap_uint", metadata !"", metadata !66, i32 260, metadata !1218, i1 false, i1 false, i32 0, i32 0, null, i32 256, i1 false, null, null, i32 0, metadata !82, i32 260} ; [ DW_TAG_subprogram ]
!1218 = metadata !{i32 786453, i32 0, metadata !"", i32 0, i32 0, i64 0, i64 0, i64 0, i32 0, null, metadata !1219, i32 0, i32 0} ; [ DW_TAG_subroutine_type ]
!1219 = metadata !{null, metadata !641, metadata !163}
!1220 = metadata !{i32 786478, i32 0, metadata !65, metadata !"ap_uint", metadata !"ap_uint", metadata !"", metadata !66, i32 262, metadata !1221, i1 false, i1 false, i32 0, i32 0, null, i32 256, i1 false, null, null, i32 0, metadata !82, i32 262} ; [ DW_TAG_subprogram ]
!1221 = metadata !{i32 786453, i32 0, metadata !"", i32 0, i32 0, i64 0, i64 0, i64 0, i32 0, null, metadata !1222, i32 0, i32 0} ; [ DW_TAG_subroutine_type ]
!1222 = metadata !{null, metadata !641, metadata !167}
!1223 = metadata !{i32 786478, i32 0, metadata !65, metadata !"ap_uint", metadata !"ap_uint", metadata !"", metadata !66, i32 263, metadata !1224, i1 false, i1 false, i32 0, i32 0, null, i32 256, i1 false, null, null, i32 0, metadata !82, i32 263} ; [ DW_TAG_subprogram ]
!1224 = metadata !{i32 786453, i32 0, metadata !"", i32 0, i32 0, i64 0, i64 0, i64 0, i32 0, null, metadata !1225, i32 0, i32 0} ; [ DW_TAG_subroutine_type ]
!1225 = metadata !{null, metadata !641, metadata !167, metadata !113}
!1226 = metadata !{i32 786478, i32 0, metadata !65, metadata !"operator=", metadata !"operator=", metadata !"_ZNV7ap_uintILi8EEaSERKS0_", metadata !66, i32 266, metadata !1227, i1 false, i1 false, i32 0, i32 0, null, i32 256, i1 false, null, null, i32 0, metadata !82, i32 266} ; [ DW_TAG_subprogram ]
!1227 = metadata !{i32 786453, i32 0, metadata !"", i32 0, i32 0, i64 0, i64 0, i64 0, i32 0, null, metadata !1228, i32 0, i32 0} ; [ DW_TAG_subroutine_type ]
!1228 = metadata !{null, metadata !1229, metadata !1231}
!1229 = metadata !{i32 786447, i32 0, metadata !"", i32 0, i32 0, i64 32, i64 32, i64 0, i32 64, metadata !1230} ; [ DW_TAG_pointer_type ]
!1230 = metadata !{i32 786485, null, metadata !"", null, i32 0, i64 0, i64 0, i64 0, i32 0, metadata !65} ; [ DW_TAG_volatile_type ]
!1231 = metadata !{i32 786448, null, null, null, i32 0, i64 0, i64 0, i64 0, i32 0, metadata !1232} ; [ DW_TAG_reference_type ]
!1232 = metadata !{i32 786470, null, metadata !"", null, i32 0, i64 0, i64 0, i64 0, i32 0, metadata !65} ; [ DW_TAG_const_type ]
!1233 = metadata !{i32 786478, i32 0, metadata !65, metadata !"operator=", metadata !"operator=", metadata !"_ZNV7ap_uintILi8EEaSERVKS0_", metadata !66, i32 270, metadata !1234, i1 false, i1 false, i32 0, i32 0, null, i32 256, i1 false, null, null, i32 0, metadata !82, i32 270} ; [ DW_TAG_subprogram ]
